
AVRASM ver. 2.1.30  E:\Univer\Diplom\huita\GPS_Lamp\Debug\List\GPS_Lamp.asm Sun May 03 18:41:00 2020

E:\Univer\Diplom\huita\GPS_Lamp\Debug\List\GPS_Lamp.asm(1088): warning: Register r5 already defined by the .DEF directive
E:\Univer\Diplom\huita\GPS_Lamp\Debug\List\GPS_Lamp.asm(1089): warning: Register r4 already defined by the .DEF directive
E:\Univer\Diplom\huita\GPS_Lamp\Debug\List\GPS_Lamp.asm(1090): warning: Register r7 already defined by the .DEF directive
E:\Univer\Diplom\huita\GPS_Lamp\Debug\List\GPS_Lamp.asm(1091): warning: Register r6 already defined by the .DEF directive
E:\Univer\Diplom\huita\GPS_Lamp\Debug\List\GPS_Lamp.asm(1092): warning: Register r9 already defined by the .DEF directive
E:\Univer\Diplom\huita\GPS_Lamp\Debug\List\GPS_Lamp.asm(1093): warning: Register r8 already defined by the .DEF directive
E:\Univer\Diplom\huita\GPS_Lamp\Debug\List\GPS_Lamp.asm(1094): warning: Register r11 already defined by the .DEF directive
E:\Univer\Diplom\huita\GPS_Lamp\Debug\List\GPS_Lamp.asm(1095): warning: Register r10 already defined by the .DEF directive
E:\Univer\Diplom\huita\GPS_Lamp\Debug\List\GPS_Lamp.asm(1096): warning: Register r13 already defined by the .DEF directive
E:\Univer\Diplom\huita\GPS_Lamp\Debug\List\GPS_Lamp.asm(1097): warning: Register r12 already defined by the .DEF directive
                 
                 
                 ;CodeVisionAVR C Compiler V3.12 Advanced
                 ;(C) Copyright 1998-2014 Pavel Haiduc, HP InfoTech s.r.l.
                 ;http://www.hpinfotech.com
                 
                 ;Build configuration    : Debug
                 ;Chip type              : ATmega16
                 ;Program type           : Application
                 ;Clock frequency        : 8,000000 MHz
                 ;Memory model           : Small
                 ;Optimize for           : Size
                 ;(s)printf features     : float, width, precision
                 ;(s)scanf features      : int, width
                 ;External RAM size      : 0
                 ;Data Stack size        : 256 byte(s)
                 ;Heap size              : 0 byte(s)
                 ;Promote 'char' to 'int': Yes
                 ;'char' is unsigned     : Yes
                 ;8 bit enums            : Yes
                 ;Global 'const' stored in FLASH: Yes
                 ;Enhanced function parameter passing: Yes
                 ;Enhanced core instructions: On
                 ;Automatic register allocation for global variables: On
                 ;Smart register allocation: On
                 
                 	#define _MODEL_SMALL_
                 
                 	#pragma AVRPART ADMIN PART_NAME ATmega16
                 	#pragma AVRPART MEMORY PROG_FLASH 16384
                 	#pragma AVRPART MEMORY EEPROM 512
                 	#pragma AVRPART MEMORY INT_SRAM SIZE 1024
                 	#pragma AVRPART MEMORY INT_SRAM START_ADDR 0x60
                 
                 	#define CALL_SUPPORTED 1
                 
                 	.LISTMAC
                 	.EQU UDRE=0x5
                 	.EQU RXC=0x7
                 	.EQU USR=0xB
                 	.EQU UDR=0xC
                 	.EQU SPSR=0xE
                 	.EQU SPDR=0xF
                 	.EQU EERE=0x0
                 	.EQU EEWE=0x1
                 	.EQU EEMWE=0x2
                 	.EQU EECR=0x1C
                 	.EQU EEDR=0x1D
                 	.EQU EEARL=0x1E
                 	.EQU EEARH=0x1F
                 	.EQU WDTCR=0x21
                 	.EQU MCUCR=0x35
                 	.EQU GICR=0x3B
                 	.EQU SPL=0x3D
                 	.EQU SPH=0x3E
                 	.EQU SREG=0x3F
                 
                 	.DEF R0X0=R0
                 	.DEF R0X1=R1
                 	.DEF R0X2=R2
                 	.DEF R0X3=R3
                 	.DEF R0X4=R4
                 	.DEF R0X5=R5
                 	.DEF R0X6=R6
                 	.DEF R0X7=R7
                 	.DEF R0X8=R8
                 	.DEF R0X9=R9
                 	.DEF R0XA=R10
                 	.DEF R0XB=R11
                 	.DEF R0XC=R12
                 	.DEF R0XD=R13
                 	.DEF R0XE=R14
                 	.DEF R0XF=R15
                 	.DEF R0X10=R16
                 	.DEF R0X11=R17
                 	.DEF R0X12=R18
                 	.DEF R0X13=R19
                 	.DEF R0X14=R20
                 	.DEF R0X15=R21
                 	.DEF R0X16=R22
                 	.DEF R0X17=R23
                 	.DEF R0X18=R24
                 	.DEF R0X19=R25
                 	.DEF R0X1A=R26
                 	.DEF R0X1B=R27
                 	.DEF R0X1C=R28
                 	.DEF R0X1D=R29
                 	.DEF R0X1E=R30
                 	.DEF R0X1F=R31
                 
                 	.EQU __SRAM_START=0x0060
                 	.EQU __SRAM_END=0x045F
                 	.EQU __DSTACK_SIZE=0x0100
                 	.EQU __HEAP_SIZE=0x0000
                 	.EQU __CLEAR_SRAM_SIZE=__SRAM_END-__SRAM_START+1
                 
                 	.MACRO __CPD1N
                 	CPI  R30,LOW(@0)
                 	LDI  R26,HIGH(@0)
                 	CPC  R31,R26
                 	LDI  R26,BYTE3(@0)
                 	CPC  R22,R26
                 	LDI  R26,BYTE4(@0)
                 	CPC  R23,R26
                 	.ENDM
                 
                 	.MACRO __CPD2N
                 	CPI  R26,LOW(@0)
                 	LDI  R30,HIGH(@0)
                 	CPC  R27,R30
                 	LDI  R30,BYTE3(@0)
                 	CPC  R24,R30
                 	LDI  R30,BYTE4(@0)
                 	CPC  R25,R30
                 	.ENDM
                 
                 	.MACRO __CPWRR
                 	CP   R@0,R@2
                 	CPC  R@1,R@3
                 	.ENDM
                 
                 	.MACRO __CPWRN
                 	CPI  R@0,LOW(@2)
                 	LDI  R30,HIGH(@2)
                 	CPC  R@1,R30
                 	.ENDM
                 
                 	.MACRO __ADDB1MN
                 	SUBI R30,LOW(-@0-(@1))
                 	.ENDM
                 
                 	.MACRO __ADDB2MN
                 	SUBI R26,LOW(-@0-(@1))
                 	.ENDM
                 
                 	.MACRO __ADDW1MN
                 	SUBI R30,LOW(-@0-(@1))
                 	SBCI R31,HIGH(-@0-(@1))
                 	.ENDM
                 
                 	.MACRO __ADDW2MN
                 	SUBI R26,LOW(-@0-(@1))
                 	SBCI R27,HIGH(-@0-(@1))
                 	.ENDM
                 
                 	.MACRO __ADDW1FN
                 	SUBI R30,LOW(-2*@0-(@1))
                 	SBCI R31,HIGH(-2*@0-(@1))
                 	.ENDM
                 
                 	.MACRO __ADDD1FN
                 	SUBI R30,LOW(-2*@0-(@1))
                 	SBCI R31,HIGH(-2*@0-(@1))
                 	SBCI R22,BYTE3(-2*@0-(@1))
                 	.ENDM
                 
                 	.MACRO __ADDD1N
                 	SUBI R30,LOW(-@0)
                 	SBCI R31,HIGH(-@0)
                 	SBCI R22,BYTE3(-@0)
                 	SBCI R23,BYTE4(-@0)
                 	.ENDM
                 
                 	.MACRO __ADDD2N
                 	SUBI R26,LOW(-@0)
                 	SBCI R27,HIGH(-@0)
                 	SBCI R24,BYTE3(-@0)
                 	SBCI R25,BYTE4(-@0)
                 	.ENDM
                 
                 	.MACRO __SUBD1N
                 	SUBI R30,LOW(@0)
                 	SBCI R31,HIGH(@0)
                 	SBCI R22,BYTE3(@0)
                 	SBCI R23,BYTE4(@0)
                 	.ENDM
                 
                 	.MACRO __SUBD2N
                 	SUBI R26,LOW(@0)
                 	SBCI R27,HIGH(@0)
                 	SBCI R24,BYTE3(@0)
                 	SBCI R25,BYTE4(@0)
                 	.ENDM
                 
                 	.MACRO __ANDBMNN
                 	LDS  R30,@0+(@1)
                 	ANDI R30,LOW(@2)
                 	STS  @0+(@1),R30
                 	.ENDM
                 
                 	.MACRO __ANDWMNN
                 	LDS  R30,@0+(@1)
                 	ANDI R30,LOW(@2)
                 	STS  @0+(@1),R30
                 	LDS  R30,@0+(@1)+1
                 	ANDI R30,HIGH(@2)
                 	STS  @0+(@1)+1,R30
                 	.ENDM
                 
                 	.MACRO __ANDD1N
                 	ANDI R30,LOW(@0)
                 	ANDI R31,HIGH(@0)
                 	ANDI R22,BYTE3(@0)
                 	ANDI R23,BYTE4(@0)
                 	.ENDM
                 
                 	.MACRO __ANDD2N
                 	ANDI R26,LOW(@0)
                 	ANDI R27,HIGH(@0)
                 	ANDI R24,BYTE3(@0)
                 	ANDI R25,BYTE4(@0)
                 	.ENDM
                 
                 	.MACRO __ORBMNN
                 	LDS  R30,@0+(@1)
                 	ORI  R30,LOW(@2)
                 	STS  @0+(@1),R30
                 	.ENDM
                 
                 	.MACRO __ORWMNN
                 	LDS  R30,@0+(@1)
                 	ORI  R30,LOW(@2)
                 	STS  @0+(@1),R30
                 	LDS  R30,@0+(@1)+1
                 	ORI  R30,HIGH(@2)
                 	STS  @0+(@1)+1,R30
                 	.ENDM
                 
                 	.MACRO __ORD1N
                 	ORI  R30,LOW(@0)
                 	ORI  R31,HIGH(@0)
                 	ORI  R22,BYTE3(@0)
                 	ORI  R23,BYTE4(@0)
                 	.ENDM
                 
                 	.MACRO __ORD2N
                 	ORI  R26,LOW(@0)
                 	ORI  R27,HIGH(@0)
                 	ORI  R24,BYTE3(@0)
                 	ORI  R25,BYTE4(@0)
                 	.ENDM
                 
                 	.MACRO __DELAY_USB
                 	LDI  R24,LOW(@0)
                 __DELAY_USB_LOOP:
                 	DEC  R24
                 	BRNE __DELAY_USB_LOOP
                 	.ENDM
                 
                 	.MACRO __DELAY_USW
                 	LDI  R24,LOW(@0)
                 	LDI  R25,HIGH(@0)
                 __DELAY_USW_LOOP:
                 	SBIW R24,1
                 	BRNE __DELAY_USW_LOOP
                 	.ENDM
                 
                 	.MACRO __GETD1S
                 	LDD  R30,Y+@0
                 	LDD  R31,Y+@0+1
                 	LDD  R22,Y+@0+2
                 	LDD  R23,Y+@0+3
                 	.ENDM
                 
                 	.MACRO __GETD2S
                 	LDD  R26,Y+@0
                 	LDD  R27,Y+@0+1
                 	LDD  R24,Y+@0+2
                 	LDD  R25,Y+@0+3
                 	.ENDM
                 
                 	.MACRO __PUTD1S
                 	STD  Y+@0,R30
                 	STD  Y+@0+1,R31
                 	STD  Y+@0+2,R22
                 	STD  Y+@0+3,R23
                 	.ENDM
                 
                 	.MACRO __PUTD2S
                 	STD  Y+@0,R26
                 	STD  Y+@0+1,R27
                 	STD  Y+@0+2,R24
                 	STD  Y+@0+3,R25
                 	.ENDM
                 
                 	.MACRO __PUTDZ2
                 	STD  Z+@0,R26
                 	STD  Z+@0+1,R27
                 	STD  Z+@0+2,R24
                 	STD  Z+@0+3,R25
                 	.ENDM
                 
                 	.MACRO __CLRD1S
                 	STD  Y+@0,R30
                 	STD  Y+@0+1,R30
                 	STD  Y+@0+2,R30
                 	STD  Y+@0+3,R30
                 	.ENDM
                 
                 	.MACRO __POINTB1MN
                 	LDI  R30,LOW(@0+(@1))
                 	.ENDM
                 
                 	.MACRO __POINTW1MN
                 	LDI  R30,LOW(@0+(@1))
                 	LDI  R31,HIGH(@0+(@1))
                 	.ENDM
                 
                 	.MACRO __POINTD1M
                 	LDI  R30,LOW(@0)
                 	LDI  R31,HIGH(@0)
                 	LDI  R22,BYTE3(@0)
                 	LDI  R23,BYTE4(@0)
                 	.ENDM
                 
                 	.MACRO __POINTW1FN
                 	LDI  R30,LOW(2*@0+(@1))
                 	LDI  R31,HIGH(2*@0+(@1))
                 	.ENDM
                 
                 	.MACRO __POINTD1FN
                 	LDI  R30,LOW(2*@0+(@1))
                 	LDI  R31,HIGH(2*@0+(@1))
                 	LDI  R22,BYTE3(2*@0+(@1))
                 	LDI  R23,BYTE4(2*@0+(@1))
                 	.ENDM
                 
                 	.MACRO __POINTB2MN
                 	LDI  R26,LOW(@0+(@1))
                 	.ENDM
                 
                 	.MACRO __POINTW2MN
                 	LDI  R26,LOW(@0+(@1))
                 	LDI  R27,HIGH(@0+(@1))
                 	.ENDM
                 
                 	.MACRO __POINTW2FN
                 	LDI  R26,LOW(2*@0+(@1))
                 	LDI  R27,HIGH(2*@0+(@1))
                 	.ENDM
                 
                 	.MACRO __POINTD2FN
                 	LDI  R26,LOW(2*@0+(@1))
                 	LDI  R27,HIGH(2*@0+(@1))
                 	LDI  R24,BYTE3(2*@0+(@1))
                 	LDI  R25,BYTE4(2*@0+(@1))
                 	.ENDM
                 
                 	.MACRO __POINTBRM
                 	LDI  R@0,LOW(@1)
                 	.ENDM
                 
                 	.MACRO __POINTWRM
                 	LDI  R@0,LOW(@2)
                 	LDI  R@1,HIGH(@2)
                 	.ENDM
                 
                 	.MACRO __POINTBRMN
                 	LDI  R@0,LOW(@1+(@2))
                 	.ENDM
                 
                 	.MACRO __POINTWRMN
                 	LDI  R@0,LOW(@2+(@3))
                 	LDI  R@1,HIGH(@2+(@3))
                 	.ENDM
                 
                 	.MACRO __POINTWRFN
                 	LDI  R@0,LOW(@2*2+(@3))
                 	LDI  R@1,HIGH(@2*2+(@3))
                 	.ENDM
                 
                 	.MACRO __GETD1N
                 	LDI  R30,LOW(@0)
                 	LDI  R31,HIGH(@0)
                 	LDI  R22,BYTE3(@0)
                 	LDI  R23,BYTE4(@0)
                 	.ENDM
                 
                 	.MACRO __GETD2N
                 	LDI  R26,LOW(@0)
                 	LDI  R27,HIGH(@0)
                 	LDI  R24,BYTE3(@0)
                 	LDI  R25,BYTE4(@0)
                 	.ENDM
                 
                 	.MACRO __GETB1MN
                 	LDS  R30,@0+(@1)
                 	.ENDM
                 
                 	.MACRO __GETB1HMN
                 	LDS  R31,@0+(@1)
                 	.ENDM
                 
                 	.MACRO __GETW1MN
                 	LDS  R30,@0+(@1)
                 	LDS  R31,@0+(@1)+1
                 	.ENDM
                 
                 	.MACRO __GETD1MN
                 	LDS  R30,@0+(@1)
                 	LDS  R31,@0+(@1)+1
                 	LDS  R22,@0+(@1)+2
                 	LDS  R23,@0+(@1)+3
                 	.ENDM
                 
                 	.MACRO __GETBRMN
                 	LDS  R@0,@1+(@2)
                 	.ENDM
                 
                 	.MACRO __GETWRMN
                 	LDS  R@0,@2+(@3)
                 	LDS  R@1,@2+(@3)+1
                 	.ENDM
                 
                 	.MACRO __GETWRZ
                 	LDD  R@0,Z+@2
                 	LDD  R@1,Z+@2+1
                 	.ENDM
                 
                 	.MACRO __GETD2Z
                 	LDD  R26,Z+@0
                 	LDD  R27,Z+@0+1
                 	LDD  R24,Z+@0+2
                 	LDD  R25,Z+@0+3
                 	.ENDM
                 
                 	.MACRO __GETB2MN
                 	LDS  R26,@0+(@1)
                 	.ENDM
                 
                 	.MACRO __GETW2MN
                 	LDS  R26,@0+(@1)
                 	LDS  R27,@0+(@1)+1
                 	.ENDM
                 
                 	.MACRO __GETD2MN
                 	LDS  R26,@0+(@1)
                 	LDS  R27,@0+(@1)+1
                 	LDS  R24,@0+(@1)+2
                 	LDS  R25,@0+(@1)+3
                 	.ENDM
                 
                 	.MACRO __PUTB1MN
                 	STS  @0+(@1),R30
                 	.ENDM
                 
                 	.MACRO __PUTW1MN
                 	STS  @0+(@1),R30
                 	STS  @0+(@1)+1,R31
                 	.ENDM
                 
                 	.MACRO __PUTD1MN
                 	STS  @0+(@1),R30
                 	STS  @0+(@1)+1,R31
                 	STS  @0+(@1)+2,R22
                 	STS  @0+(@1)+3,R23
                 	.ENDM
                 
                 	.MACRO __PUTB1EN
                 	LDI  R26,LOW(@0+(@1))
                 	LDI  R27,HIGH(@0+(@1))
                 	CALL __EEPROMWRB
                 	.ENDM
                 
                 	.MACRO __PUTW1EN
                 	LDI  R26,LOW(@0+(@1))
                 	LDI  R27,HIGH(@0+(@1))
                 	CALL __EEPROMWRW
                 	.ENDM
                 
                 	.MACRO __PUTD1EN
                 	LDI  R26,LOW(@0+(@1))
                 	LDI  R27,HIGH(@0+(@1))
                 	CALL __EEPROMWRD
                 	.ENDM
                 
                 	.MACRO __PUTBR0MN
                 	STS  @0+(@1),R0
                 	.ENDM
                 
                 	.MACRO __PUTBMRN
                 	STS  @0+(@1),R@2
                 	.ENDM
                 
                 	.MACRO __PUTWMRN
                 	STS  @0+(@1),R@2
                 	STS  @0+(@1)+1,R@3
                 	.ENDM
                 
                 	.MACRO __PUTBZR
                 	STD  Z+@1,R@0
                 	.ENDM
                 
                 	.MACRO __PUTWZR
                 	STD  Z+@2,R@0
                 	STD  Z+@2+1,R@1
                 	.ENDM
                 
                 	.MACRO __GETW1R
                 	MOV  R30,R@0
                 	MOV  R31,R@1
                 	.ENDM
                 
                 	.MACRO __GETW2R
                 	MOV  R26,R@0
                 	MOV  R27,R@1
                 	.ENDM
                 
                 	.MACRO __GETWRN
                 	LDI  R@0,LOW(@2)
                 	LDI  R@1,HIGH(@2)
                 	.ENDM
                 
                 	.MACRO __PUTW1R
                 	MOV  R@0,R30
                 	MOV  R@1,R31
                 	.ENDM
                 
                 	.MACRO __PUTW2R
                 	MOV  R@0,R26
                 	MOV  R@1,R27
                 	.ENDM
                 
                 	.MACRO __ADDWRN
                 	SUBI R@0,LOW(-@2)
                 	SBCI R@1,HIGH(-@2)
                 	.ENDM
                 
                 	.MACRO __ADDWRR
                 	ADD  R@0,R@2
                 	ADC  R@1,R@3
                 	.ENDM
                 
                 	.MACRO __SUBWRN
                 	SUBI R@0,LOW(@2)
                 	SBCI R@1,HIGH(@2)
                 	.ENDM
                 
                 	.MACRO __SUBWRR
                 	SUB  R@0,R@2
                 	SBC  R@1,R@3
                 	.ENDM
                 
                 	.MACRO __ANDWRN
                 	ANDI R@0,LOW(@2)
                 	ANDI R@1,HIGH(@2)
                 	.ENDM
                 
                 	.MACRO __ANDWRR
                 	AND  R@0,R@2
                 	AND  R@1,R@3
                 	.ENDM
                 
                 	.MACRO __ORWRN
                 	ORI  R@0,LOW(@2)
                 	ORI  R@1,HIGH(@2)
                 	.ENDM
                 
                 	.MACRO __ORWRR
                 	OR   R@0,R@2
                 	OR   R@1,R@3
                 	.ENDM
                 
                 	.MACRO __EORWRR
                 	EOR  R@0,R@2
                 	EOR  R@1,R@3
                 	.ENDM
                 
                 	.MACRO __GETWRS
                 	LDD  R@0,Y+@2
                 	LDD  R@1,Y+@2+1
                 	.ENDM
                 
                 	.MACRO __PUTBSR
                 	STD  Y+@1,R@0
                 	.ENDM
                 
                 	.MACRO __PUTWSR
                 	STD  Y+@2,R@0
                 	STD  Y+@2+1,R@1
                 	.ENDM
                 
                 	.MACRO __MOVEWRR
                 	MOV  R@0,R@2
                 	MOV  R@1,R@3
                 	.ENDM
                 
                 	.MACRO __INWR
                 	IN   R@0,@2
                 	IN   R@1,@2+1
                 	.ENDM
                 
                 	.MACRO __OUTWR
                 	OUT  @2+1,R@1
                 	OUT  @2,R@0
                 	.ENDM
                 
                 	.MACRO __CALL1MN
                 	LDS  R30,@0+(@1)
                 	LDS  R31,@0+(@1)+1
                 	ICALL
                 	.ENDM
                 
                 	.MACRO __CALL1FN
                 	LDI  R30,LOW(2*@0+(@1))
                 	LDI  R31,HIGH(2*@0+(@1))
                 	CALL __GETW1PF
                 	ICALL
                 	.ENDM
                 
                 	.MACRO __CALL2EN
                 	PUSH R26
                 	PUSH R27
                 	LDI  R26,LOW(@0+(@1))
                 	LDI  R27,HIGH(@0+(@1))
                 	CALL __EEPROMRDW
                 	POP  R27
                 	POP  R26
                 	ICALL
                 	.ENDM
                 
                 	.MACRO __CALL2EX
                 	SUBI R26,LOW(-@0)
                 	SBCI R27,HIGH(-@0)
                 	CALL __EEPROMRDD
                 	ICALL
                 	.ENDM
                 
                 	.MACRO __GETW1STACK
                 	IN   R30,SPL
                 	IN   R31,SPH
                 	ADIW R30,@0+1
                 	LD   R0,Z+
                 	LD   R31,Z
                 	MOV  R30,R0
                 	.ENDM
                 
                 	.MACRO __GETD1STACK
                 	IN   R30,SPL
                 	IN   R31,SPH
                 	ADIW R30,@0+1
                 	LD   R0,Z+
                 	LD   R1,Z+
                 	LD   R22,Z
                 	MOVW R30,R0
                 	.ENDM
                 
                 	.MACRO __NBST
                 	BST  R@0,@1
                 	IN   R30,SREG
                 	LDI  R31,0x40
                 	EOR  R30,R31
                 	OUT  SREG,R30
                 	.ENDM
                 
                 
                 	.MACRO __PUTB1SN
                 	LDD  R26,Y+@0
                 	LDD  R27,Y+@0+1
                 	SUBI R26,LOW(-@1)
                 	SBCI R27,HIGH(-@1)
                 	ST   X,R30
                 	.ENDM
                 
                 	.MACRO __PUTW1SN
                 	LDD  R26,Y+@0
                 	LDD  R27,Y+@0+1
                 	SUBI R26,LOW(-@1)
                 	SBCI R27,HIGH(-@1)
                 	ST   X+,R30
                 	ST   X,R31
                 	.ENDM
                 
                 	.MACRO __PUTD1SN
                 	LDD  R26,Y+@0
                 	LDD  R27,Y+@0+1
                 	SUBI R26,LOW(-@1)
                 	SBCI R27,HIGH(-@1)
                 	CALL __PUTDP1
                 	.ENDM
                 
                 	.MACRO __PUTB1SNS
                 	LDD  R26,Y+@0
                 	LDD  R27,Y+@0+1
                 	ADIW R26,@1
                 	ST   X,R30
                 	.ENDM
                 
                 	.MACRO __PUTW1SNS
                 	LDD  R26,Y+@0
                 	LDD  R27,Y+@0+1
                 	ADIW R26,@1
                 	ST   X+,R30
                 	ST   X,R31
                 	.ENDM
                 
                 	.MACRO __PUTD1SNS
                 	LDD  R26,Y+@0
                 	LDD  R27,Y+@0+1
                 	ADIW R26,@1
                 	CALL __PUTDP1
                 	.ENDM
                 
                 	.MACRO __PUTB1PMN
                 	LDS  R26,@0
                 	LDS  R27,@0+1
                 	SUBI R26,LOW(-@1)
                 	SBCI R27,HIGH(-@1)
                 	ST   X,R30
                 	.ENDM
                 
                 	.MACRO __PUTW1PMN
                 	LDS  R26,@0
                 	LDS  R27,@0+1
                 	SUBI R26,LOW(-@1)
                 	SBCI R27,HIGH(-@1)
                 	ST   X+,R30
                 	ST   X,R31
                 	.ENDM
                 
                 	.MACRO __PUTD1PMN
                 	LDS  R26,@0
                 	LDS  R27,@0+1
                 	SUBI R26,LOW(-@1)
                 	SBCI R27,HIGH(-@1)
                 	CALL __PUTDP1
                 	.ENDM
                 
                 	.MACRO __PUTB1PMNS
                 	LDS  R26,@0
                 	LDS  R27,@0+1
                 	ADIW R26,@1
                 	ST   X,R30
                 	.ENDM
                 
                 	.MACRO __PUTW1PMNS
                 	LDS  R26,@0
                 	LDS  R27,@0+1
                 	ADIW R26,@1
                 	ST   X+,R30
                 	ST   X,R31
                 	.ENDM
                 
                 	.MACRO __PUTD1PMNS
                 	LDS  R26,@0
                 	LDS  R27,@0+1
                 	ADIW R26,@1
                 	CALL __PUTDP1
                 	.ENDM
                 
                 	.MACRO __PUTB1RN
                 	MOVW R26,R@0
                 	SUBI R26,LOW(-@1)
                 	SBCI R27,HIGH(-@1)
                 	ST   X,R30
                 	.ENDM
                 
                 	.MACRO __PUTW1RN
                 	MOVW R26,R@0
                 	SUBI R26,LOW(-@1)
                 	SBCI R27,HIGH(-@1)
                 	ST   X+,R30
                 	ST   X,R31
                 	.ENDM
                 
                 	.MACRO __PUTD1RN
                 	MOVW R26,R@0
                 	SUBI R26,LOW(-@1)
                 	SBCI R27,HIGH(-@1)
                 	CALL __PUTDP1
                 	.ENDM
                 
                 	.MACRO __PUTB1RNS
                 	MOVW R26,R@0
                 	ADIW R26,@1
                 	ST   X,R30
                 	.ENDM
                 
                 	.MACRO __PUTW1RNS
                 	MOVW R26,R@0
                 	ADIW R26,@1
                 	ST   X+,R30
                 	ST   X,R31
                 	.ENDM
                 
                 	.MACRO __PUTD1RNS
                 	MOVW R26,R@0
                 	ADIW R26,@1
                 	CALL __PUTDP1
                 	.ENDM
                 
                 	.MACRO __PUTB1RON
                 	MOV  R26,R@0
                 	MOV  R27,R@1
                 	SUBI R26,LOW(-@2)
                 	SBCI R27,HIGH(-@2)
                 	ST   X,R30
                 	.ENDM
                 
                 	.MACRO __PUTW1RON
                 	MOV  R26,R@0
                 	MOV  R27,R@1
                 	SUBI R26,LOW(-@2)
                 	SBCI R27,HIGH(-@2)
                 	ST   X+,R30
                 	ST   X,R31
                 	.ENDM
                 
                 	.MACRO __PUTD1RON
                 	MOV  R26,R@0
                 	MOV  R27,R@1
                 	SUBI R26,LOW(-@2)
                 	SBCI R27,HIGH(-@2)
                 	CALL __PUTDP1
                 	.ENDM
                 
                 	.MACRO __PUTB1RONS
                 	MOV  R26,R@0
                 	MOV  R27,R@1
                 	ADIW R26,@2
                 	ST   X,R30
                 	.ENDM
                 
                 	.MACRO __PUTW1RONS
                 	MOV  R26,R@0
                 	MOV  R27,R@1
                 	ADIW R26,@2
                 	ST   X+,R30
                 	ST   X,R31
                 	.ENDM
                 
                 	.MACRO __PUTD1RONS
                 	MOV  R26,R@0
                 	MOV  R27,R@1
                 	ADIW R26,@2
                 	CALL __PUTDP1
                 	.ENDM
                 
                 
                 	.MACRO __GETB1SX
                 	MOVW R30,R28
                 	SUBI R30,LOW(-@0)
                 	SBCI R31,HIGH(-@0)
                 	LD   R30,Z
                 	.ENDM
                 
                 	.MACRO __GETB1HSX
                 	MOVW R30,R28
                 	SUBI R30,LOW(-@0)
                 	SBCI R31,HIGH(-@0)
                 	LD   R31,Z
                 	.ENDM
                 
                 	.MACRO __GETW1SX
                 	MOVW R30,R28
                 	SUBI R30,LOW(-@0)
                 	SBCI R31,HIGH(-@0)
                 	LD   R0,Z+
                 	LD   R31,Z
                 	MOV  R30,R0
                 	.ENDM
                 
                 	.MACRO __GETD1SX
                 	MOVW R30,R28
                 	SUBI R30,LOW(-@0)
                 	SBCI R31,HIGH(-@0)
                 	LD   R0,Z+
                 	LD   R1,Z+
                 	LD   R22,Z+
                 	LD   R23,Z
                 	MOVW R30,R0
                 	.ENDM
                 
                 	.MACRO __GETB2SX
                 	MOVW R26,R28
                 	SUBI R26,LOW(-@0)
                 	SBCI R27,HIGH(-@0)
                 	LD   R26,X
                 	.ENDM
                 
                 	.MACRO __GETW2SX
                 	MOVW R26,R28
                 	SUBI R26,LOW(-@0)
                 	SBCI R27,HIGH(-@0)
                 	LD   R0,X+
                 	LD   R27,X
                 	MOV  R26,R0
                 	.ENDM
                 
                 	.MACRO __GETD2SX
                 	MOVW R26,R28
                 	SUBI R26,LOW(-@0)
                 	SBCI R27,HIGH(-@0)
                 	LD   R0,X+
                 	LD   R1,X+
                 	LD   R24,X+
                 	LD   R25,X
                 	MOVW R26,R0
                 	.ENDM
                 
                 	.MACRO __GETBRSX
                 	MOVW R30,R28
                 	SUBI R30,LOW(-@1)
                 	SBCI R31,HIGH(-@1)
                 	LD   R@0,Z
                 	.ENDM
                 
                 	.MACRO __GETWRSX
                 	MOVW R30,R28
                 	SUBI R30,LOW(-@2)
                 	SBCI R31,HIGH(-@2)
                 	LD   R@0,Z+
                 	LD   R@1,Z
                 	.ENDM
                 
                 	.MACRO __GETBRSX2
                 	MOVW R26,R28
                 	SUBI R26,LOW(-@1)
                 	SBCI R27,HIGH(-@1)
                 	LD   R@0,X
                 	.ENDM
                 
                 	.MACRO __GETWRSX2
                 	MOVW R26,R28
                 	SUBI R26,LOW(-@2)
                 	SBCI R27,HIGH(-@2)
                 	LD   R@0,X+
                 	LD   R@1,X
                 	.ENDM
                 
                 	.MACRO __LSLW8SX
                 	MOVW R30,R28
                 	SUBI R30,LOW(-@0)
                 	SBCI R31,HIGH(-@0)
                 	LD   R31,Z
                 	CLR  R30
                 	.ENDM
                 
                 	.MACRO __PUTB1SX
                 	MOVW R26,R28
                 	SUBI R26,LOW(-@0)
                 	SBCI R27,HIGH(-@0)
                 	ST   X,R30
                 	.ENDM
                 
                 	.MACRO __PUTW1SX
                 	MOVW R26,R28
                 	SUBI R26,LOW(-@0)
                 	SBCI R27,HIGH(-@0)
                 	ST   X+,R30
                 	ST   X,R31
                 	.ENDM
                 
                 	.MACRO __PUTD1SX
                 	MOVW R26,R28
                 	SUBI R26,LOW(-@0)
                 	SBCI R27,HIGH(-@0)
                 	ST   X+,R30
                 	ST   X+,R31
                 	ST   X+,R22
                 	ST   X,R23
                 	.ENDM
                 
                 	.MACRO __CLRW1SX
                 	MOVW R26,R28
                 	SUBI R26,LOW(-@0)
                 	SBCI R27,HIGH(-@0)
                 	ST   X+,R30
                 	ST   X,R30
                 	.ENDM
                 
                 	.MACRO __CLRD1SX
                 	MOVW R26,R28
                 	SUBI R26,LOW(-@0)
                 	SBCI R27,HIGH(-@0)
                 	ST   X+,R30
                 	ST   X+,R30
                 	ST   X+,R30
                 	ST   X,R30
                 	.ENDM
                 
                 	.MACRO __PUTB2SX
                 	MOVW R30,R28
                 	SUBI R30,LOW(-@0)
                 	SBCI R31,HIGH(-@0)
                 	ST   Z,R26
                 	.ENDM
                 
                 	.MACRO __PUTW2SX
                 	MOVW R30,R28
                 	SUBI R30,LOW(-@0)
                 	SBCI R31,HIGH(-@0)
                 	ST   Z+,R26
                 	ST   Z,R27
                 	.ENDM
                 
                 	.MACRO __PUTD2SX
                 	MOVW R30,R28
                 	SUBI R30,LOW(-@0)
                 	SBCI R31,HIGH(-@0)
                 	ST   Z+,R26
                 	ST   Z+,R27
                 	ST   Z+,R24
                 	ST   Z,R25
                 	.ENDM
                 
                 	.MACRO __PUTBSRX
                 	MOVW R30,R28
                 	SUBI R30,LOW(-@1)
                 	SBCI R31,HIGH(-@1)
                 	ST   Z,R@0
                 	.ENDM
                 
                 	.MACRO __PUTWSRX
                 	MOVW R30,R28
                 	SUBI R30,LOW(-@2)
                 	SBCI R31,HIGH(-@2)
                 	ST   Z+,R@0
                 	ST   Z,R@1
                 	.ENDM
                 
                 	.MACRO __PUTB1SNX
                 	MOVW R26,R28
                 	SUBI R26,LOW(-@0)
                 	SBCI R27,HIGH(-@0)
                 	LD   R0,X+
                 	LD   R27,X
                 	MOV  R26,R0
                 	SUBI R26,LOW(-@1)
                 	SBCI R27,HIGH(-@1)
                 	ST   X,R30
                 	.ENDM
                 
                 	.MACRO __PUTW1SNX
                 	MOVW R26,R28
                 	SUBI R26,LOW(-@0)
                 	SBCI R27,HIGH(-@0)
                 	LD   R0,X+
                 	LD   R27,X
                 	MOV  R26,R0
                 	SUBI R26,LOW(-@1)
                 	SBCI R27,HIGH(-@1)
                 	ST   X+,R30
                 	ST   X,R31
                 	.ENDM
                 
                 	.MACRO __PUTD1SNX
                 	MOVW R26,R28
                 	SUBI R26,LOW(-@0)
                 	SBCI R27,HIGH(-@0)
                 	LD   R0,X+
                 	LD   R27,X
                 	MOV  R26,R0
                 	SUBI R26,LOW(-@1)
                 	SBCI R27,HIGH(-@1)
                 	ST   X+,R30
                 	ST   X+,R31
                 	ST   X+,R22
                 	ST   X,R23
                 	.ENDM
                 
                 	.MACRO __MULBRR
                 	MULS R@0,R@1
                 	MOVW R30,R0
                 	.ENDM
                 
                 	.MACRO __MULBRRU
                 	MUL  R@0,R@1
                 	MOVW R30,R0
                 	.ENDM
                 
                 	.MACRO __MULBRR0
                 	MULS R@0,R@1
                 	.ENDM
                 
                 	.MACRO __MULBRRU0
                 	MUL  R@0,R@1
                 	.ENDM
                 
                 	.MACRO __MULBNWRU
                 	LDI  R26,@2
                 	MUL  R26,R@0
                 	MOVW R30,R0
                 	MUL  R26,R@1
                 	ADD  R31,R0
                 	.ENDM
                 
                 ;NAME DEFINITIONS FOR GLOBAL VARIABLES ALLOCATED TO REGISTERS
                 	.DEF _work_gps=R5
                 	.DEF _i=R4
                 	.DEF _temp_msb=R7
                 	.DEF _temp_lsb=R6
                 	.DEF _ed_speed=R9
                 	.DEF _deset_speed=R8
                 	.DEF _soten_speed=R11
                 	.DEF _sum_hours=R10
                 	.DEF _j=R13
                 	.DEF _ed_min_clock=R12
                 
                 	.CSEG
                 	.ORG 0x00
                 
                 ;START OF CODE MARKER
                 __START_OF_CODE:
                 
                 ;INTERRUPT VECTORS
000000 940c 00fb 	JMP  __RESET
000002 940c 026a 	JMP  _ext_int0_isr
000004 940c 0000 	JMP  0x00
000006 940c 0000 	JMP  0x00
000008 940c 0000 	JMP  0x00
00000a 940c 0000 	JMP  0x00
00000c 940c 0000 	JMP  0x00
00000e 940c 0000 	JMP  0x00
000010 940c 0000 	JMP  0x00
000012 940c 0270 	JMP  _timer0_ovf_isr
000014 940c 0000 	JMP  0x00
000016 940c 0128 	JMP  _usart_rx_isr
000018 940c 0000 	JMP  0x00
00001a 940c 0000 	JMP  0x00
00001c 940c 02e4 	JMP  _adc_isr
00001e 940c 0000 	JMP  0x00
000020 940c 0000 	JMP  0x00
000022 940c 0000 	JMP  0x00
000024 940c 0000 	JMP  0x00
000026 940c 0000 	JMP  0x00
000028 940c 0000 	JMP  0x00
                 
                 ;REGISTER BIT VARIABLES INITIALIZATION
                 __REG_BIT_VARS:
00002a 0000      	.DW  0x0000
                 
                 _0x3:
00002b 0100
00002c 0302
00002d 4140
00002e 4342      	.DB  0x0,0x1,0x2,0x3,0x40,0x41,0x42,0x43
00002f 8180      	.DB  0x80,0x81
                 _0x0:
000030 0020
000031 003e
000032 003c
000033 0030      	.DB  0x20,0x0,0x3E,0x0,0x3C,0x0,0x30,0x0
000034 2020
000035 2020
000036 4700
000037 5350      	.DB  0x20,0x20,0x20,0x20,0x0,0x47,0x50,0x53
000038 6920
000039 666e
00003a 206f
00003b 7973      	.DB  0x20,0x69,0x6E,0x66,0x6F,0x20,0x73,0x79
00003c 7473
00003d 6d65
00003e 5600
00003f 7265      	.DB  0x73,0x74,0x65,0x6D,0x0,0x56,0x65,0x72
000040 202e
000041 3831
000042 302e
000043 2e34      	.DB  0x2E,0x20,0x31,0x38,0x2E,0x30,0x34,0x2E
000044 3032
000045 3931
000046 4d00
000047 3038      	.DB  0x32,0x30,0x31,0x39,0x0,0x4D,0x38,0x30
000048 3033
000049 4e20
00004a 4f45
00004b 4d2d      	.DB  0x33,0x30,0x20,0x4E,0x45,0x4F,0x2D,0x4D
00004c 4e38
00004d 4600
00004e 414c
00004f 4853      	.DB  0x38,0x4E,0x0,0x46,0x4C,0x41,0x53,0x48
000050 2020
000051 4e42
000052 322d
000053 3038      	.DB  0x20,0x20,0x42,0x4E,0x2D,0x32,0x38,0x30
000054 5000
000055 4153
000056 2020
000057 7247      	.DB  0x0,0x50,0x53,0x41,0x20,0x20,0x47,0x72
000058 756f
000059 6570
00005a 5000
00005b 5545      	.DB  0x6F,0x75,0x70,0x65,0x0,0x50,0x45,0x55
00005c 4547
00005d 544f
00005e 3320
00005f 3730      	.DB  0x47,0x45,0x4F,0x54,0x20,0x33,0x30,0x37
000060 3a00
000061 5300
000062 003d
000063 3d74      	.DB  0x0,0x3A,0x0,0x53,0x3D,0x0,0x74,0x3D
000064 5600
000065 003d
000066 5245
000067 4f52      	.DB  0x0,0x56,0x3D,0x0,0x45,0x52,0x52,0x4F
000068 2052
000069 0020
00006a 2020
00006b 2020      	.DB  0x52,0x20,0x20,0x0,0x20,0x20,0x20,0x20
00006c 2020
00006d 2020
00006e 2020
00006f 2020      	.DB  0x20,0x20,0x20,0x20,0x20,0x20,0x20,0x20
000070 2020
000071 0020
000072 3d4e
000073 2020      	.DB  0x20,0x20,0x20,0x0,0x4E,0x3D,0x20,0x20
000074 5320
000075 003d
000076 2020
000077 2020      	.DB  0x20,0x53,0x3D,0x0,0x20,0x20,0x20,0x20
000078 2020
000079 2020
00007a 2020
00007b 2020      	.DB  0x20,0x20,0x20,0x20,0x20,0x20,0x20,0x20
00007c 2020
00007d 2020
00007e 2000
00007f 4e20      	.DB  0x20,0x20,0x20,0x20,0x0,0x20,0x20,0x4E
000080 204f
000081 4953
000082 4e47
000083 4c41      	.DB  0x4F,0x20,0x53,0x49,0x47,0x4E,0x41,0x4C
000084 2300
000085 4700
000086 5350
000087 4f5f      	.DB  0x0,0x23,0x0,0x47,0x50,0x53,0x5F,0x4F
000088 206b
E:\Univer\Diplom\huita\GPS_Lamp\Debug\List\GPS_Lamp.asm(1158): warning: .cseg .db misalignment - padding zero byte
000089 0000      	.DB  0x6B,0x20,0x0
                 _0x2000060:
E:\Univer\Diplom\huita\GPS_Lamp\Debug\List\GPS_Lamp.asm(1160): warning: .cseg .db misalignment - padding zero byte
00008a 0001      	.DB  0x1
                 _0x2000000:
00008b 4e2d
00008c 4e41
00008d 4900
00008e 464e      	.DB  0x2D,0x4E,0x41,0x4E,0x0,0x49,0x4E,0x46
E:\Univer\Diplom\huita\GPS_Lamp\Debug\List\GPS_Lamp.asm(1163): warning: .cseg .db misalignment - padding zero byte
00008f 0000      	.DB  0x0
                 _0x2060003:
000090 c080      	.DB  0x80,0xC0
                 _0x2080000:
000091 4e2d
000092 4e41
E:\Univer\Diplom\huita\GPS_Lamp\Debug\List\GPS_Lamp.asm(1167): warning: .cseg .db misalignment - padding zero byte
000093 0000      	.DB  0x2D,0x4E,0x41,0x4E,0x0
                 
                 __GLOBAL_INI_TBL:
000094 0001      	.DW  0x01
000095 0002      	.DW  0x02
000096 0054      	.DW  __REG_BIT_VARS*2
                 
000097 000a      	.DW  0x0A
000098 0296      	.DW  _speed
000099 0056      	.DW  _0x3*2
                 
00009a 0002      	.DW  0x02
00009b 0160      	.DW  _0x20
00009c 0060      	.DW  _0x0*2
                 
00009d 0002      	.DW  0x02
00009e 0162      	.DW  _0x20+2
00009f 0060      	.DW  _0x0*2
                 
0000a0 0002      	.DW  0x02
0000a1 0164      	.DW  _0x20+4
0000a2 0062      	.DW  _0x0*2+2
                 
0000a3 0002      	.DW  0x02
0000a4 0166      	.DW  _0x20+6
0000a5 0064      	.DW  _0x0*2+4
                 
0000a6 0002      	.DW  0x02
0000a7 0168      	.DW  _0x20+8
0000a8 0066      	.DW  _0x0*2+6
                 
0000a9 0005      	.DW  0x05
0000aa 016a      	.DW  _0x20+10
0000ab 0068      	.DW  _0x0*2+8
                 
0000ac 0010      	.DW  0x10
0000ad 016f      	.DW  _0x5F
0000ae 006d      	.DW  _0x0*2+13
                 
0000af 0010      	.DW  0x10
0000b0 017f      	.DW  _0x5F+16
0000b1 007d      	.DW  _0x0*2+29
                 
0000b2 000e      	.DW  0x0E
0000b3 018f      	.DW  _0x5F+32
0000b4 008d      	.DW  _0x0*2+45
                 
0000b5 000e      	.DW  0x0E
0000b6 019d      	.DW  _0x5F+46
0000b7 009b      	.DW  _0x0*2+59
                 
0000b8 000c      	.DW  0x0C
0000b9 01ab      	.DW  _0x5F+60
0000ba 00a9      	.DW  _0x0*2+73
                 
0000bb 000c      	.DW  0x0C
0000bc 01b7      	.DW  _0x5F+72
0000bd 00b5      	.DW  _0x0*2+85
                 
0000be 0002      	.DW  0x02
0000bf 01c3      	.DW  _0x5F+84
0000c0 00c1      	.DW  _0x0*2+97
                 
0000c1 0003      	.DW  0x03
0000c2 01c5      	.DW  _0x5F+86
0000c3 00c3      	.DW  _0x0*2+99
                 
0000c4 0003      	.DW  0x03
0000c5 01c8      	.DW  _0x5F+89
0000c6 00c6      	.DW  _0x0*2+102
                 
0000c7 0003      	.DW  0x03
0000c8 01cb      	.DW  _0x5F+92
0000c9 00c9      	.DW  _0x0*2+105
                 
0000ca 0008      	.DW  0x08
0000cb 01ce      	.DW  _0x5F+95
0000cc 00cc      	.DW  _0x0*2+108
                 
0000cd 0010      	.DW  0x10
0000ce 01d6      	.DW  _0x5F+103
0000cf 00d4      	.DW  _0x0*2+116
                 
0000d0 0008      	.DW  0x08
0000d1 01e6      	.DW  _0x5F+119
0000d2 00e4      	.DW  _0x0*2+132
                 
0000d3 0011      	.DW  0x11
0000d4 01ee      	.DW  _0x5F+127
0000d5 00ec      	.DW  _0x0*2+140
                 
0000d6 000c      	.DW  0x0C
0000d7 01ff      	.DW  _0x5F+144
0000d8 00fd      	.DW  _0x0*2+157
                 
0000d9 0011      	.DW  0x11
0000da 020b      	.DW  _0x5F+156
0000db 00ec      	.DW  _0x0*2+140
                 
0000dc 0002      	.DW  0x02
0000dd 021c      	.DW  _0x5F+173
0000de 00c1      	.DW  _0x0*2+97
                 
0000df 0003      	.DW  0x03
0000e0 021e      	.DW  _0x5F+175
0000e1 00c3      	.DW  _0x0*2+99
                 
0000e2 0002      	.DW  0x02
0000e3 0221      	.DW  _0x5F+178
0000e4 0109      	.DW  _0x0*2+169
                 
0000e5 0011      	.DW  0x11
0000e6 0223      	.DW  _0x5F+180
0000e7 00ec      	.DW  _0x0*2+140
                 
0000e8 0008      	.DW  0x08
0000e9 0234      	.DW  _0x5F+197
0000ea 010b      	.DW  _0x0*2+171
                 
0000eb 0002      	.DW  0x02
0000ec 023c      	.DW  _0x5F+205
0000ed 00c1      	.DW  _0x0*2+97
                 
0000ee 0002      	.DW  0x02
0000ef 023e      	.DW  _0x5F+207
0000f0 0066      	.DW  _0x0*2+6
                 
0000f1 0002      	.DW  0x02
0000f2 0240      	.DW  _0x5F+209
0000f3 007b      	.DW  _0x0*2+27
                 
0000f4 0001      	.DW  0x01
0000f5 0307      	.DW  __seed_G100
0000f6 0114      	.DW  _0x2000060*2
                 
0000f7 0002      	.DW  0x02
0000f8 030b      	.DW  __base_y_G103
0000f9 0120      	.DW  _0x2060003*2
                 
                 _0xFFFFFFFF:
0000fa 0000      	.DW  0
                 
                 #define __GLOBAL_INI_TBL_PRESENT 1
                 
                 __RESET:
0000fb 94f8      	CLI
0000fc 27ee      	CLR  R30
0000fd bbec      	OUT  EECR,R30
                 
                 ;INTERRUPT VECTORS ARE PLACED
                 ;AT THE START OF FLASH
0000fe e0f1      	LDI  R31,1
0000ff bffb      	OUT  GICR,R31
000100 bfeb      	OUT  GICR,R30
000101 bfe5      	OUT  MCUCR,R30
                 
                 ;CLEAR R2-R14
000102 e08d      	LDI  R24,(14-2)+1
000103 e0a2      	LDI  R26,2
000104 27bb      	CLR  R27
                 __CLEAR_REG:
000105 93ed      	ST   X+,R30
000106 958a      	DEC  R24
000107 f7e9      	BRNE __CLEAR_REG
                 
                 ;CLEAR SRAM
000108 e080      	LDI  R24,LOW(__CLEAR_SRAM_SIZE)
000109 e094      	LDI  R25,HIGH(__CLEAR_SRAM_SIZE)
00010a e6a0      	LDI  R26,__SRAM_START
                 __CLEAR_SRAM:
00010b 93ed      	ST   X+,R30
00010c 9701      	SBIW R24,1
00010d f7e9      	BRNE __CLEAR_SRAM
                 
                 ;GLOBAL VARIABLES INITIALIZATION
00010e e2e8      	LDI  R30,LOW(__GLOBAL_INI_TBL*2)
00010f e0f1      	LDI  R31,HIGH(__GLOBAL_INI_TBL*2)
                 __GLOBAL_INI_NEXT:
000110 9185      	LPM  R24,Z+
000111 9195      	LPM  R25,Z+
000112 9700      	SBIW R24,0
000113 f061      	BREQ __GLOBAL_INI_END
000114 91a5      	LPM  R26,Z+
000115 91b5      	LPM  R27,Z+
000116 9005      	LPM  R0,Z+
000117 9015      	LPM  R1,Z+
000118 01bf      	MOVW R22,R30
000119 01f0      	MOVW R30,R0
                 __GLOBAL_INI_LOOP:
00011a 9005      	LPM  R0,Z+
00011b 920d      	ST   X+,R0
00011c 9701      	SBIW R24,1
00011d f7e1      	BRNE __GLOBAL_INI_LOOP
00011e 01fb      	MOVW R30,R22
00011f cff0      	RJMP __GLOBAL_INI_NEXT
                 __GLOBAL_INI_END:
                 
                 ;HARDWARE STACK POINTER INITIALIZATION
000120 e5ef      	LDI  R30,LOW(__SRAM_END-__HEAP_SIZE)
000121 bfed      	OUT  SPL,R30
000122 e0e4      	LDI  R30,HIGH(__SRAM_END-__HEAP_SIZE)
000123 bfee      	OUT  SPH,R30
                 
                 ;DATA STACK POINTER INITIALIZATION
000124 e6c0      	LDI  R28,LOW(__SRAM_START+__DSTACK_SIZE)
000125 e0d1      	LDI  R29,HIGH(__SRAM_START+__DSTACK_SIZE)
                 
000126 940c 02f2 	JMP  _main
                 
                 	.ESEG
                 	.ORG 0
                 
                 	.DSEG
                 	.ORG 0x160
                 
                 	.CSEG
                 ;/*******************************************************
                 ;This program was created by the
                 ;CodeWizardAVR V3.12 Advanced
                 ;Automatic Program Generator
                 ;© Copyright 1998-2014 Pavel Haiduc, HP InfoTech s.r.l.
                 ;http://www.hpinfotech.com
                 ;
                 ;Project :
                 ;Version :
                 ;Date    : 27.06.2018
                 ;Author  :
                 ;Company :
                 ;Comments:
                 ;
                 ;
                 ;Chip type               : ATmega16
                 ;Program type            : Application
                 ;AVR Core Clock frequency: 8,000000 MHz
                 ;Memory model            : Small
                 ;External RAM size       : 0
                 ;Data Stack size         : 256
                 ;*******************************************************/
                 ;
                 ;#include <mega16.h>
                 	#ifndef __SLEEP_DEFINED__
                 	#define __SLEEP_DEFINED__
                 	.EQU __se_bit=0x40
                 	.EQU __sm_mask=0xB0
                 	.EQU __sm_powerdown=0x20
                 	.EQU __sm_powersave=0x30
                 	.EQU __sm_standby=0xA0
                 	.EQU __sm_ext_standby=0xB0
                 	.EQU __sm_adc_noise_red=0x10
                 	.SET power_ctrl_reg=mcucr
                 	#endif
                 ;
                 ;#include <delay.h>
                 ;
                 ;// I2C Bus functions
                 ;#include <i2c.h>
                 ;
                 ;
                 ;#include <stdlib.h>
                 ;
                 ;// 1 Wire Bus interface functions
                 ;#include <1wire.h>
                 ;
                 ;// DS1820 Temperature Sensor functions
                 ;#include <ds1820.h>
                 ;
                 ;
                 ;#include <ds1307.h>
                 ;
                 ;// Alphanumeric LCD functions
                 ;#include <alcd.h>
                 ;
                 ;// Standard Input/Output functions
                 ;#include <stdio.h>
                 ;
                 ;#define adc_on ADCSRA|=0x80
                 ;
                 ;#define adc_off ADCSRA &=(~0x80)
                 ;
                 ;#define min_u 115
                 ;
                 ;#define max_u 148
                 ;
                 ;
                 ;// Declare your global variables here
                 ;
                 ;unsigned char work_gps;
                 ;unsigned char i;
                 ;
                 ;unsigned char temp_msb;
                 ;unsigned char temp_lsb;
                 ;unsigned char ed_speed;
                 ;unsigned char deset_speed;
                 ;unsigned char soten_speed;
                 ;
                 ;
                 ;
                 ;unsigned char sum_hours;
                 ;
                 ;unsigned char j;
                 ;
                 ;unsigned char ed_min_clock;
                 ;unsigned char decet_min_clock;
                 ;unsigned char ed_hours_clock;
                 ;unsigned char decet_Hours_clock;
                 ;
                 ;unsigned char h;
                 ;unsigned char m;
                 ;unsigned char s;
                 ;
                 ;unsigned char st;
                 ;
                 ;unsigned char st_v;
                 ;
                 ;unsigned char st_po;
                 ;unsigned int  err;
                 ;
                 ;unsigned char ;
                 ;unsigned char counter;
                 ;unsigned char work;
                 ;unsigned char test;
                 ;unsigned char es_gps;
                 ;
                 ;unsigned char cnt_rem;
                 ;unsigned char cnt_c;
                 ;unsigned char error;
                 ;
                 ;unsigned char kvadrat;
                 ;//unsigned char kvad;
                 ;//unsigned char kv;
                 ;//unsigned char wrx;
                 ;
                 ;unsigned char decet_sek_clock;
                 ;unsigned char alarm_u;
                 ;   unsigned char c;
                 ;   unsigned char t;
                 ;     unsigned char s;
                 ; unsigned int  metr;
                 ;    unsigned char ts;
                 ;     unsigned char tm;
                 ;
                 ;       unsigned char st_s;
                 ;    unsigned char r;
                 ;      unsigned char met;
                 ;
                 ;  unsigned int adc_dataw;
                 ;  unsigned int adc_data;
                 ;  unsigned int adc_datawi;
                 ;   unsigned char cout_in;
                 ;
                 ;
                 ;
                 ; // unsigned int  crrc;
                 ; //   unsigned int  crrw;
                 ;
                 ;
                 ;
                 ;
                 ;float  copy;
                 ;float  wcnt_rem;
                 ;float wcnt_c;
                 ;
                 ;
                 ;bit flag;
                 ;
                 ;unsigned char lcd_buf[16];
                 ;
                 ;unsigned char speed_array[10];
                 ;
                 ;unsigned char speed[]={0x00,0x01,0x02,0x03,0x40,0x41,0x42,0x43,0x80,0x81};
                 
                 	.DSEG
                 ;
                 ;
                 ;
                 ;
                 ; /*
                 ;
                 ;
                 ;
                 ;
                 ;
                 ; int calc_NMEA_Checksum( char *buf, int cnt )
                 ; { char Character;
                 ;int Checksum = 0;
                 ; int i; // loop counter //foreach(char Character in sentence)
                 ;for (i=0;i<cnt;++i) {
                 ;Character = buf[i];
                 ;switch(Character)
                 ;{case'$':
                 ;// Ignore the dollar sign
                 ;break;
                 ;case '*': // Stop processing before the asterisk
                 ; i = cnt;
                 ;continue;
                 ;default: // Is this the first value for the checksum?
                 ;if (Checksum == 0) {
                 ;// Yes. Set the checksum to the value
                 ; Checksum = Character; } else
                 ;{
                 ;// No. XOR the checksum with this character value
                 ; Checksum = Checksum ^ Character; }
                 ;break; }
                 ; } // Return the checksum
                 ;return (Checksum);
                 ;} //
                 ;
                 ;
                 ;
                 ;  */
                 ;
                 ;
                 ;
                 ;  #define DATA_REGISTER_EMPTY (1<<UDRE)
                 ;#define RX_COMPLETE (1<<RXC)
                 ;#define FRAMING_ERROR (1<<FE)
                 ;#define PARITY_ERROR (1<<UPE)
                 ;#define DATA_OVERRUN (1<<DOR)
                 ;
                 ;// USART Receiver buffer
                 ;#define RX_BUFFER_SIZE 100
                 ;char rx_buffer[RX_BUFFER_SIZE];
                 ;
                 ;#if RX_BUFFER_SIZE < 256
                 ;unsigned char rx_wr_index=0,rx_rd_index=0;
                 ;#else
                 ;unsigned int rx_wr_index=0,rx_rd_index=0;
                 ;#endif
                 ;
                 ;#if RX_BUFFER_SIZE < 256
                 ;unsigned char rx_counter=0;
                 ;#else
                 ;unsigned int rx_counter=0;
                 ;#endif
                 ;
                 ;// This flag is set on USART Receiver buffer overflow
                 ;bit rx_buffer_overflow;
                 ;
                 ;// USART Receiver interrupt service routine
                 ;interrupt [USART_RXC] void usart_rx_isr(void)
                 ; 0000 00D4 {
                 
                 	.CSEG
                 _usart_rx_isr:
                 ; .FSTART _usart_rx_isr
000128 93aa      	ST   -Y,R26
000129 93ea      	ST   -Y,R30
00012a 93fa      	ST   -Y,R31
00012b b7ef      	IN   R30,SREG
00012c 93ea      	ST   -Y,R30
                 ; 0000 00D5 char status,data;
                 ; 0000 00D6 status=UCSRA;
00012d 931a      	ST   -Y,R17
00012e 930a      	ST   -Y,R16
                 ;	status -> R17
                 ;	data -> R16
00012f b11b      	IN   R17,11
                 ; 0000 00D7 data=UDR;
000130 b10c      	IN   R16,12
                 ; 0000 00D8 if ((status & (FRAMING_ERROR | PARITY_ERROR | DATA_OVERRUN))==0)
000131 2fe1      	MOV  R30,R17
000132 71ec      	ANDI R30,LOW(0x1C)
000133 f4e9      	BRNE _0x4
                 ; 0000 00D9    {
                 ; 0000 00DA    rx_buffer[rx_wr_index++]=data;
000134 91e0 0304 	LDS  R30,_rx_wr_index
000136 5fef      	SUBI R30,-LOW(1)
000137 93e0 0304 	STS  _rx_wr_index,R30
000139 50e1      	SUBI R30,LOW(1)
00013a e0f0      	LDI  R31,0
00013b 56e0      	SUBI R30,LOW(-_rx_buffer)
00013c 4ffd      	SBCI R31,HIGH(-_rx_buffer)
00013d 8300      	ST   Z,R16
                 ; 0000 00DB #if RX_BUFFER_SIZE == 255
                 ; 0000 00DC    // special case for receiver buffer size=256
                 ; 0000 00DD    if (++rx_counter == 0) rx_buffer_overflow=1;
                 ; 0000 00DE #else
                 ; 0000 00DF    if (rx_wr_index == RX_BUFFER_SIZE) rx_wr_index=0;
00013e 91a0 0304 	LDS  R26,_rx_wr_index
000140 36a4      	CPI  R26,LOW(0x64)
000141 f419      	BRNE _0x5
000142 e0e0      	LDI  R30,LOW(0)
000143 93e0 0304 	STS  _rx_wr_index,R30
                 ; 0000 00E0    if (++rx_counter == RX_BUFFER_SIZE)
                 _0x5:
000145 91a0 0306 	LDS  R26,_rx_counter
000147 5faf      	SUBI R26,-LOW(1)
000148 93a0 0306 	STS  _rx_counter,R26
00014a 36a4      	CPI  R26,LOW(0x64)
00014b f429      	BRNE _0x6
                 ; 0000 00E1       {
                 ; 0000 00E2       rx_counter=0;
00014c e0e0      	LDI  R30,LOW(0)
00014d 93e0 0306 	STS  _rx_counter,R30
                 ; 0000 00E3       rx_buffer_overflow=1;
00014f 9468      	SET
000150 f821      	BLD  R2,1
                 ; 0000 00E4       }
                 ; 0000 00E5 #endif
                 ; 0000 00E6    }
                 _0x6:
                 ; 0000 00E7 
                 ; 0000 00E8 
                 ; 0000 00E9 
                 ; 0000 00EA    if( met>0)
                 _0x4:
000151 91a0 0268 	LDS  R26,_met
000153 30a1      	CPI  R26,LOW(0x1)
000154 f070      	BRLO _0x7
                 ; 0000 00EB         {
                 ; 0000 00EC         ++met;
000155 91e0 0268 	LDS  R30,_met
000157 5fef      	SUBI R30,-LOW(1)
000158 93e0 0268 	STS  _met,R30
                 ; 0000 00ED       if( met==3)
00015a 91a0 0268 	LDS  R26,_met
00015c 30a3      	CPI  R26,LOW(0x3)
00015d f429      	BRNE _0x8
                 ; 0000 00EE       {
                 ; 0000 00EF        work_gps=1;
00015e e0e1      	LDI  R30,LOW(1)
00015f 2e5e      	MOV  R5,R30
                 ; 0000 00F0                   return;
000160 9109      	LD   R16,Y+
000161 9119      	LD   R17,Y+
000162 c17b      	RJMP _0x12A
                 ; 0000 00F1                   }
                 ; 0000 00F2                   }
                 _0x8:
                 ; 0000 00F3    if (data=='*')
                 _0x7:
000163 320a      	CPI  R16,42
000164 f419      	BRNE _0x9
                 ; 0000 00F4 
                 ; 0000 00F5        met=1;
000165 e0e1      	LDI  R30,LOW(1)
000166 93e0 0268 	STS  _met,R30
                 ; 0000 00F6 
                 ; 0000 00F7 
                 ; 0000 00F8     }
                 _0x9:
000168 9109      	LD   R16,Y+
000169 9119      	LD   R17,Y+
00016a c173      	RJMP _0x12A
                 ; .FEND
                 ;
                 ;
                 ;#ifndef _DEBUG_TERMINAL_IO_
                 ;// Get a character from the USART Receiver buffer
                 ;#define _ALTERNATE_GETCHAR_
                 ;#pragma used+
                 ;char getchar(void)
                 ; 0000 0100 {
                 ; 0000 0101 char data;
                 ; 0000 0102 while (rx_counter==0);
                 ;	data -> R17
                 ; 0000 0103 data=rx_buffer[rx_rd_index++];
                 ; 0000 0104 #if RX_BUFFER_SIZE != 256
                 ; 0000 0105 if (rx_rd_index == RX_BUFFER_SIZE) rx_rd_index=0;
                 ; 0000 0106 #endif
                 ; 0000 0107 #asm("cli")
                 ; 0000 0108 --rx_counter;
                 ; 0000 0109 #asm("sei")
                 ; 0000 010A return data;
                 ; 0000 010B }
                 ;#pragma used-
                 ;#endif
                 ;
                 ;
                 ;   #include <string.h>
                 ;
                 ;
                 ;  void reset (void)
                 ; 0000 0114      {
                 _reset:
                 ; .FSTART _reset
                 ; 0000 0115 
                 ; 0000 0116 
                 ; 0000 0117      // #asm("sei")
                 ; 0000 0118     // TIMSK=(0<<OCIE2) | (0<<TOIE2) | (0<<TICIE1) | (0<<OCIE1A) | (0<<OCIE1B)
                 ; 0000 0119  //    | (1<<TOIE1) | (0<<OCIE0) | (1<<TOIE0);
                 ; 0000 011A       work_gps=0;
00016b 2455      	CLR  R5
                 ; 0000 011B              rx_wr_index=0;
00016c e0e0      	LDI  R30,LOW(0)
00016d 93e0 0304 	STS  _rx_wr_index,R30
                 ; 0000 011C        //   kvad=0;
                 ; 0000 011D          //  wrx=0;
                 ; 0000 011E          memset(rx_buffer,0,RX_BUFFER_SIZE);
00016f eae0      	LDI  R30,LOW(_rx_buffer)
000170 e0f2      	LDI  R31,HIGH(_rx_buffer)
000171 93fa      	ST   -Y,R31
000172 93ea      	ST   -Y,R30
000173 e0e0      	LDI  R30,LOW(0)
000174 93ea      	ST   -Y,R30
000175 e6a4      	LDI  R26,LOW(100)
000176 e0b0      	LDI  R27,0
000177 940e 0a13 	CALL _memset
                 ; 0000 011F 
                 ; 0000 0120                           }
000179 9508      	RET
                 ; .FEND
                 ;
                 ;      void lcd_d (void)
                 ; 0000 0123   {
                 _lcd_d:
                 ; .FSTART _lcd_d
                 ; 0000 0124     if (rx_buffer [i+1]=='0')
00017a 940e 0a8f 	CALL SUBOPT_0x0
00017c 33a0      	CPI  R26,LOW(0x30)
00017d f021      	BREQ _0x121
                 ; 0000 0125                lcd_putchar(rx_buffer [i+2]);
                 ; 0000 0126                      else
                 ; 0000 0127                {
                 ; 0000 0128              lcd_putchar(rx_buffer [i+1]);
00017e 940e 0a8f 	CALL SUBOPT_0x0
000180 940e 09ac 	CALL _lcd_putchar
                 ; 0000 0129                lcd_putchar(rx_buffer [i+2]);
                 _0x121:
000182 2de4      	MOV  R30,R4
000183 e0f0      	LDI  R31,0
                +
000184 55ee     +SUBI R30 , LOW ( - _rx_buffer - ( 2 ) )
000185 4ffd     +SBCI R31 , HIGH ( - _rx_buffer - ( 2 ) )
                 	__ADDW1MN _rx_buffer,2
000186 81a0      	LD   R26,Z
000187 940e 09ac 	CALL _lcd_putchar
                 ; 0000 012A                        }
                 ; 0000 012B          // lcd_puts(lcd_buf);
                 ; 0000 012C             lcd_putchar(0X20);
000189 e2a0      	LDI  R26,LOW(32)
00018a 940e 09ac 	CALL _lcd_putchar
                 ; 0000 012D           }
00018c 9508      	RET
                 ; .FEND
                 ;
                 ;
                 ;
                 ;
                 ;
                 ;
                 ;
                 ;  void tim(void)
                 ; 0000 0136   {
                 _tim:
                 ; .FSTART _tim
                 ; 0000 0137 
                 ; 0000 0138       ++st_s;
00018d 91e0 0266 	LDS  R30,_st_s
00018f 5fef      	SUBI R30,-LOW(1)
000190 93e0 0266 	STS  _st_s,R30
                 ; 0000 0139       if(st_s==2 || st_s==11)
000192 91a0 0266 	LDS  R26,_st_s
000194 30a2      	CPI  R26,LOW(0x2)
000195 f011      	BREQ _0x11
000196 30ab      	CPI  R26,LOW(0xB)
000197 f5d1      	BRNE _0x10
                 _0x11:
                 ; 0000 013A       {
                 ; 0000 013B 
                 ; 0000 013C         //   UCSRB &=~(1<<RXCIE);
                 ; 0000 013D 
                 ; 0000 013E 
                 ; 0000 013F       rtc_get_time(&h,&m,&s);
000198 e4ee      	LDI  R30,LOW(_h)
000199 e0f2      	LDI  R31,HIGH(_h)
00019a 93fa      	ST   -Y,R31
00019b 93ea      	ST   -Y,R30
00019c e4ef      	LDI  R30,LOW(_m)
00019d e0f2      	LDI  R31,HIGH(_m)
00019e 93fa      	ST   -Y,R31
00019f 93ea      	ST   -Y,R30
0001a0 e5a0      	LDI  R26,LOW(_s)
0001a1 e0b2      	LDI  R27,HIGH(_s)
0001a2 940e 091f 	CALL _rtc_get_time
                 ; 0000 0140          if (s==0 || st_s==11)
0001a4 91a0 0250 	LDS  R26,_s
0001a6 30a0      	CPI  R26,LOW(0x0)
0001a7 f021      	BREQ _0x14
0001a8 91a0 0266 	LDS  R26,_st_s
0001aa 30ab      	CPI  R26,LOW(0xB)
0001ab f519      	BRNE _0x13
                 _0x14:
                 ; 0000 0141 
                 ; 0000 0142           {
                 ; 0000 0143 
                 ; 0000 0144     decet_Hours_clock=h/10;
0001ac 91a0 024e 	LDS  R26,_h
0001ae e0b0      	LDI  R27,0
0001af e0ea      	LDI  R30,LOW(10)
0001b0 e0f0      	LDI  R31,HIGH(10)
0001b1 940e 0e6c 	CALL __DIVW21
0001b3 93e0 024d 	STS  _decet_Hours_clock,R30
                 ; 0000 0145     ed_hours_clock=h%10;
0001b5 91a0 024e 	LDS  R26,_h
0001b7 27bb      	CLR  R27
0001b8 e0ea      	LDI  R30,LOW(10)
0001b9 e0f0      	LDI  R31,HIGH(10)
0001ba 940e 0e71 	CALL __MODW21
0001bc 93e0 024c 	STS  _ed_hours_clock,R30
                 ; 0000 0146     decet_min_clock=m/10;
0001be 91a0 024f 	LDS  R26,_m
0001c0 e0b0      	LDI  R27,0
0001c1 e0ea      	LDI  R30,LOW(10)
0001c2 e0f0      	LDI  R31,HIGH(10)
0001c3 940e 0e6c 	CALL __DIVW21
0001c5 93e0 024b 	STS  _decet_min_clock,R30
                 ; 0000 0147     ed_min_clock=m%10;
0001c7 91a0 024f 	LDS  R26,_m
0001c9 27bb      	CLR  R27
0001ca e0ea      	LDI  R30,LOW(10)
0001cb e0f0      	LDI  R31,HIGH(10)
0001cc 940e 0e71 	CALL __MODW21
0001ce 2ece      	MOV  R12,R30
                 ; 0000 0148                   }
                 ; 0000 0149 
                 ; 0000 014A 
                 ; 0000 014B 
                 ; 0000 014C           st_s=0;
                 _0x13:
0001cf e0e0      	LDI  R30,LOW(0)
0001d0 93e0 0266 	STS  _st_s,R30
                 ; 0000 014D           //  UCSRB|=(1<<RXCIE);
                 ; 0000 014E             //  reset();
                 ; 0000 014F 
                 ; 0000 0150             }
                 ; 0000 0151 
                 ; 0000 0152     if(es_gps==0 && test==0)
                 _0x10:
0001d2 91a0 0259 	LDS  R26,_es_gps
0001d4 30a0      	CPI  R26,LOW(0x0)
0001d5 f421      	BRNE _0x17
0001d6 91a0 0258 	LDS  R26,_test
0001d8 30a0      	CPI  R26,LOW(0x0)
0001d9 f009      	BREQ _0x18
                 _0x17:
0001da c064      	RJMP _0x16
                 _0x18:
                 ; 0000 0153 
                 ; 0000 0154     {
                 ; 0000 0155 
                 ; 0000 0156      switch(kvadrat)
0001db 91e0 025d 	LDS  R30,_kvadrat
0001dd e0f0      	LDI  R31,0
                 ; 0000 0157      {
                 ; 0000 0158        case 0:
0001de 9730      	SBIW R30,0
0001df f4a1      	BRNE _0x1C
                 ; 0000 0159                flag=1;
0001e0 9468      	SET
0001e1 f820      	BLD  R2,0
                 ; 0000 015A    while(flag==1){}
                 _0x1D:
0001e2 fc20      	SBRC R2,0
0001e3 cffe      	RJMP _0x1D
                 ; 0000 015B         lcd_gotoxy(0,0);
0001e4 940e 0a95 	CALL SUBOPT_0x1
                 ; 0000 015C lcd_puts(" ");
                +
0001e6 e6a0     +LDI R26 , LOW ( _0x20 + ( 0 ) )
0001e7 e0b1     +LDI R27 , HIGH ( _0x20 + ( 0 ) )
                 	__POINTW2MN _0x20,0
0001e8 940e 0a9a 	CALL SUBOPT_0x2
                 ; 0000 015D    lcd_gotoxy(6,0);
                 ; 0000 015E lcd_puts(" ");
                +
0001ea e6a2     +LDI R26 , LOW ( _0x20 + ( 2 ) )
0001eb e0b1     +LDI R27 , HIGH ( _0x20 + ( 2 ) )
                 	__POINTW2MN _0x20,2
0001ec 940e 09cc 	CALL _lcd_puts
                 ; 0000 015F 
                 ; 0000 0160 
                 ; 0000 0161            kvadrat++;
0001ee 91e0 025d 	LDS  R30,_kvadrat
0001f0 5fef      	SUBI R30,-LOW(1)
0001f1 93e0 025d 	STS  _kvadrat,R30
                 ; 0000 0162               break;
0001f3 c04b      	RJMP _0x1B
                 ; 0000 0163          case 1:
                 _0x1C:
0001f4 30e1      	CPI  R30,LOW(0x1)
0001f5 e0a0      	LDI  R26,HIGH(0x1)
0001f6 07fa      	CPC  R31,R26
0001f7 f009      	BREQ PC+2
0001f8 c046      	RJMP _0x1B
                 ; 0000 0164 
                 ; 0000 0165 
                 ; 0000 0166 
                 ; 0000 0167 
                 ; 0000 0168                flag=1;
0001f9 9468      	SET
0001fa f820      	BLD  R2,0
                 ; 0000 0169    while(flag==1){}
                 _0x22:
0001fb fc20      	SBRC R2,0
0001fc cffe      	RJMP _0x22
                 ; 0000 016A         lcd_gotoxy(0,0);
0001fd 940e 0a95 	CALL SUBOPT_0x1
                 ; 0000 016B lcd_puts(">");
                +
0001ff e6a4     +LDI R26 , LOW ( _0x20 + ( 4 ) )
000200 e0b1     +LDI R27 , HIGH ( _0x20 + ( 4 ) )
                 	__POINTW2MN _0x20,4
000201 940e 0a9a 	CALL SUBOPT_0x2
                 ; 0000 016C    lcd_gotoxy(6,0);
                 ; 0000 016D lcd_puts("<");
                +
000203 e6a6     +LDI R26 , LOW ( _0x20 + ( 6 ) )
000204 e0b1     +LDI R27 , HIGH ( _0x20 + ( 6 ) )
                 	__POINTW2MN _0x20,6
000205 940e 09cc 	CALL _lcd_puts
                 ; 0000 016E        kvadrat=0;
000207 e0e0      	LDI  R30,LOW(0)
000208 93e0 025d 	STS  _kvadrat,R30
                 ; 0000 016F 
                 ; 0000 0170 
                 ; 0000 0171     if(++ts==60)
00020a 91a0 0264 	LDS  R26,_ts
00020c 5faf      	SUBI R26,-LOW(1)
00020d 93a0 0264 	STS  _ts,R26
00020f 33ac      	CPI  R26,LOW(0x3C)
000210 f509      	BRNE _0x25
                 ; 0000 0172     {
                 ; 0000 0173     ts=0;
000211 93e0 0264 	STS  _ts,R30
                 ; 0000 0174      ++tm;
000213 91e0 0265 	LDS  R30,_tm
000215 5fef      	SUBI R30,-LOW(1)
000216 93e0 0265 	STS  _tm,R30
                 ; 0000 0175     flag=1;
000218 9468      	SET
000219 f820      	BLD  R2,0
                 ; 0000 0176    while(flag==1){}
                 _0x26:
00021a fc20      	SBRC R2,0
00021b cffe      	RJMP _0x26
                 ; 0000 0177        lcd_gotoxy(2,0);
00021c e0e2      	LDI  R30,LOW(2)
00021d 940e 0aa1 	CALL SUBOPT_0x3
                 ; 0000 0178       if(tm<10)
00021f 91a0 0265 	LDS  R26,_tm
000221 30aa      	CPI  R26,LOW(0xA)
000222 f410      	BRSH _0x29
                 ; 0000 0179            lcd_gotoxy(2,0);
000223 e0e2      	LDI  R30,LOW(2)
000224 c001      	RJMP _0x122
                 ; 0000 017A            else
                 _0x29:
                 ; 0000 017B             lcd_gotoxy(1,0);
000225 e0e1      	LDI  R30,LOW(1)
                 _0x122:
000226 93ea      	ST   -Y,R30
000227 e0a0      	LDI  R26,LOW(0)
000228 940e 098d 	CALL _lcd_gotoxy
                 ; 0000 017C 
                 ; 0000 017D             itoa(tm,lcd_buf);
00022a 940e 0aa5 	CALL SUBOPT_0x4
                 ; 0000 017E                  lcd_puts(lcd_buf);
00022c 940e 0aae 	CALL SUBOPT_0x5
                 ; 0000 017F    flag=1;
00022e 9468      	SET
00022f f820      	BLD  R2,0
                 ; 0000 0180    while(flag==1){}             }
                 _0x2B:
000230 fc20      	SBRC R2,0
000231 cffe      	RJMP _0x2B
                 ; 0000 0181       lcd_gotoxy(4,0);
                 _0x25:
000232 e0e4      	LDI  R30,LOW(4)
000233 940e 0aa1 	CALL SUBOPT_0x3
                 ; 0000 0182       if(ts<10)
000235 91a0 0264 	LDS  R26,_ts
000237 30aa      	CPI  R26,LOW(0xA)
000238 f420      	BRSH _0x2E
                 ; 0000 0183          lcd_puts("0");
                +
000239 e6a8     +LDI R26 , LOW ( _0x20 + ( 8 ) )
00023a e0b1     +LDI R27 , HIGH ( _0x20 + ( 8 ) )
                 	__POINTW2MN _0x20,8
00023b 940e 09cc 	CALL _lcd_puts
                 ; 0000 0184 
                 ; 0000 0185             itoa(ts,lcd_buf);
                 _0x2E:
00023d 940e 0ab2 	CALL SUBOPT_0x6
                 ; 0000 0186                  lcd_puts(lcd_buf);
                 ; 0000 0187 
                 ; 0000 0188 
                 ; 0000 0189 
                 ; 0000 018A              break;
                 ; 0000 018B 
                 ; 0000 018C 
                 ; 0000 018D 
                 ; 0000 018E 
                 ; 0000 018F                }
                 _0x1B:
                 ; 0000 0190                }
                 ; 0000 0191 
                 ; 0000 0192    if(alarm_u>0)
                 _0x16:
00023f 91a0 025f 	LDS  R26,_alarm_u
000241 30a1      	CPI  R26,LOW(0x1)
000242 f130      	BRLO _0x2F
                 ; 0000 0193      {
                 ; 0000 0194 
                 ; 0000 0195 
                 ; 0000 0196      switch(c)
000243 91e0 0260 	LDS  R30,_c
000245 e0f0      	LDI  R31,0
                 ; 0000 0197     {
                 ; 0000 0198     case 0:
000246 9730      	SBIW R30,0
000247 f471      	BRNE _0x33
                 ; 0000 0199               flag=1;
000248 9468      	SET
000249 f820      	BLD  R2,0
                 ; 0000 019A    while(flag==1){}
                 _0x34:
00024a fc20      	SBRC R2,0
00024b cffe      	RJMP _0x34
                 ; 0000 019B   lcd_gotoxy(12,1);
00024c 940e 0abc 	CALL SUBOPT_0x7
                 ; 0000 019C lcd_puts("    ");
                +
00024e e6aa     +LDI R26 , LOW ( _0x20 + ( 10 ) )
00024f e0b1     +LDI R27 , HIGH ( _0x20 + ( 10 ) )
                 	__POINTW2MN _0x20,10
000250 940e 09cc 	CALL _lcd_puts
                 ; 0000 019D 
                 ; 0000 019E  c++;
000252 91e0 0260 	LDS  R30,_c
000254 5fef      	SUBI R30,-LOW(1)
000255 c011      	RJMP _0x123
                 ; 0000 019F break;
                 ; 0000 01A0 
                 ; 0000 01A1  case 1:
                 _0x33:
000256 30e1      	CPI  R30,LOW(0x1)
000257 e0a0      	LDI  R26,HIGH(0x1)
000258 07fa      	CPC  R31,R26
000259 f479      	BRNE _0x32
                 ; 0000 01A2 
                 ; 0000 01A3 
                 ; 0000 01A4 
                 ; 0000 01A5    ftoa((float)adc_datawi/10,1,lcd_buf);
00025a 91e0 026d 	LDS  R30,_adc_datawi
00025c 91f0 026e 	LDS  R31,_adc_datawi+1
00025e 940e 0ac1 	CALL SUBOPT_0x8
                 ; 0000 01A6                       flag=1;
                 ; 0000 01A7    while(flag==1){}
                 _0x38:
000260 fc20      	SBRC R2,0
000261 cffe      	RJMP _0x38
                 ; 0000 01A8          lcd_gotoxy(12,1);
000262 940e 0abc 	CALL SUBOPT_0x7
                 ; 0000 01A9       lcd_puts(lcd_buf); c=0;;
000264 940e 0aae 	CALL SUBOPT_0x5
000266 e0e0      	LDI  R30,LOW(0)
                 _0x123:
000267 93e0 0260 	STS  _c,R30
                 ; 0000 01AA 
                 ; 0000 01AB    break;
                 ; 0000 01AC       }
                 _0x32:
                 ; 0000 01AD 
                 ; 0000 01AE       }
                 ; 0000 01AF 
                 ; 0000 01B0    }
                 _0x2F:
000269 9508      	RET
                 ; .FEND
                 
                 	.DSEG
                 _0x20:
000160           	.BYTE 0xF
                 ;
                 ;
                 ;
                 ;// External Interrupt 0 service routine
                 ;interrupt [EXT_INT0] void ext_int0_isr(void)
                 ; 0000 01B6 {
                 
                 	.CSEG
                 _ext_int0_isr:
                 ; .FSTART _ext_int0_isr
00026a 93ea      	ST   -Y,R30
                 ; 0000 01B7 // Place your code here
                 ; 0000 01B8    work=1;
00026b e0e1      	LDI  R30,LOW(1)
00026c 93e0 0257 	STS  _work,R30
                 ; 0000 01B9 
                 ; 0000 01BA 
                 ; 0000 01BB       }
00026e 91e9      	LD   R30,Y+
00026f 9518      	RETI
                 ; .FEND
                 ;
                 ;// Standard Input/Output functions
                 ;#include <stdio.h>
                 ;
                 ;// Timer 0 overflow interrupt service routine
                 ;interrupt [TIM0_OVF] void timer0_ovf_isr(void)
                 ; 0000 01C2 {
                 _timer0_ovf_isr:
                 ; .FSTART _timer0_ovf_isr
000270 93aa      	ST   -Y,R26
000271 93ea      	ST   -Y,R30
000272 93fa      	ST   -Y,R31
000273 b7ef      	IN   R30,SREG
000274 93ea      	ST   -Y,R30
                 ; 0000 01C3 // Reinitialize Timer 0 value
                 ; 0000 01C4 //TCNT0=0x64;
                 ; 0000 01C5 // Place your code here
                 ; 0000 01C6 
                 ; 0000 01C7         PORTA=0;
000275 e0e0      	LDI  R30,LOW(0)
000276 bbeb      	OUT  0x1B,R30
                 ; 0000 01C8      counter++;
000277 91e0 0256 	LDS  R30,_counter
000279 5fef      	SUBI R30,-LOW(1)
00027a 93e0 0256 	STS  _counter,R30
                 ; 0000 01C9 
                 ; 0000 01CA 
                 ; 0000 01CB 
                 ; 0000 01CC 
                 ; 0000 01CD switch (counter)
00027c 940e 0ad8 	CALL SUBOPT_0x9
                 ; 0000 01CE {
                 ; 0000 01CF 
                 ; 0000 01D0  case 1:  if (soten_speed==0 && test==0)return;
00027e f459      	BRNE _0x3E
00027f 20bb      	TST  R11
000280 f421      	BRNE _0x40
000281 91a0 0258 	LDS  R26,_test
000283 30a0      	CPI  R26,LOW(0x0)
000284 f009      	BREQ _0x41
                 _0x40:
000285 c001      	RJMP _0x3F
                 _0x41:
000286 c057      	RJMP _0x12A
                 ; 0000 01D1 
                 ; 0000 01D2  PORTA.1=1; PORTC=speed[soten_speed];
                 _0x3F:
000287 9ad9      	SBI  0x1B,1
000288 2deb      	MOV  R30,R11
000289 c04d      	RJMP _0x124
                 ; 0000 01D3      break;
                 ; 0000 01D4  case 2:  if (deset_speed==0 && soten_speed==0 && test==0)return;
                 _0x3E:
00028a 30e2      	CPI  R30,LOW(0x2)
00028b e0a0      	LDI  R26,HIGH(0x2)
00028c 07fa      	CPC  R31,R26
00028d f469      	BRNE _0x44
00028e 2088      	TST  R8
00028f f431      	BRNE _0x46
000290 20bb      	TST  R11
000291 f421      	BRNE _0x46
000292 91a0 0258 	LDS  R26,_test
000294 30a0      	CPI  R26,LOW(0x0)
000295 f009      	BREQ _0x47
                 _0x46:
000296 c001      	RJMP _0x45
                 _0x47:
000297 c046      	RJMP _0x12A
                 ; 0000 01D5 
                 ; 0000 01D6  PORTA.2=1; PORTC=speed[deset_speed];
                 _0x45:
000298 9ada      	SBI  0x1B,2
000299 2de8      	MOV  R30,R8
00029a c03c      	RJMP _0x124
                 ; 0000 01D7      break;
                 ; 0000 01D8  case 3:  if(test==0 && es_gps==0) return;
                 _0x44:
00029b 30e3      	CPI  R30,LOW(0x3)
00029c e0a0      	LDI  R26,HIGH(0x3)
00029d 07fa      	CPC  R31,R26
00029e f469      	BRNE _0x4A
00029f 91a0 0258 	LDS  R26,_test
0002a1 30a0      	CPI  R26,LOW(0x0)
0002a2 f421      	BRNE _0x4C
0002a3 91a0 0259 	LDS  R26,_es_gps
0002a5 30a0      	CPI  R26,LOW(0x0)
0002a6 f009      	BREQ _0x4D
                 _0x4C:
0002a7 c001      	RJMP _0x4B
                 _0x4D:
0002a8 c035      	RJMP _0x12A
                 ; 0000 01D9 
                 ; 0000 01DA  PORTA.3=1; PORTC=speed[ed_speed];
                 _0x4B:
0002a9 9adb      	SBI  0x1B,3
0002aa 2de9      	MOV  R30,R9
0002ab c02b      	RJMP _0x124
                 ; 0000 01DB      break;
                 ; 0000 01DC  case 4: if(test==0 && decet_Hours_clock ==0)return;
                 _0x4A:
0002ac 30e4      	CPI  R30,LOW(0x4)
0002ad e0a0      	LDI  R26,HIGH(0x4)
0002ae 07fa      	CPC  R31,R26
0002af f471      	BRNE _0x50
0002b0 91a0 0258 	LDS  R26,_test
0002b2 30a0      	CPI  R26,LOW(0x0)
0002b3 f421      	BRNE _0x52
0002b4 91a0 024d 	LDS  R26,_decet_Hours_clock
0002b6 30a0      	CPI  R26,LOW(0x0)
0002b7 f009      	BREQ _0x53
                 _0x52:
0002b8 c001      	RJMP _0x51
                 _0x53:
0002b9 c024      	RJMP _0x12A
                 ; 0000 01DD      PORTA.4=1; PORTC=speed[decet_Hours_clock];
                 _0x51:
0002ba 9adc      	SBI  0x1B,4
0002bb 91e0 024d 	LDS  R30,_decet_Hours_clock
0002bd c019      	RJMP _0x124
                 ; 0000 01DE      break;
                 ; 0000 01DF  case 5:
                 _0x50:
0002be 30e5      	CPI  R30,LOW(0x5)
0002bf e0a0      	LDI  R26,HIGH(0x5)
0002c0 07fa      	CPC  R31,R26
0002c1 f421      	BRNE _0x56
                 ; 0000 01E0  PORTA.5=1; PORTC=speed[ed_hours_clock];
0002c2 9add      	SBI  0x1B,5
0002c3 91e0 024c 	LDS  R30,_ed_hours_clock
0002c5 c011      	RJMP _0x124
                 ; 0000 01E1      break;
                 ; 0000 01E2  case 6:
                 _0x56:
0002c6 30e6      	CPI  R30,LOW(0x6)
0002c7 e0a0      	LDI  R26,HIGH(0x6)
0002c8 07fa      	CPC  R31,R26
0002c9 f421      	BRNE _0x59
                 ; 0000 01E3  PORTA.6=1; PORTC=speed[decet_min_clock];
0002ca 9ade      	SBI  0x1B,6
0002cb 91e0 024b 	LDS  R30,_decet_min_clock
0002cd c009      	RJMP _0x124
                 ; 0000 01E4      break;
                 ; 0000 01E5  case 7: counter=0;
                 _0x59:
0002ce 30e7      	CPI  R30,LOW(0x7)
0002cf e0a0      	LDI  R26,HIGH(0x7)
0002d0 07fa      	CPC  R31,R26
0002d1 f451      	BRNE _0x3D
0002d2 e0e0      	LDI  R30,LOW(0)
0002d3 93e0 0256 	STS  _counter,R30
                 ; 0000 01E6 
                 ; 0000 01E7  PORTA.7=1; PORTC=speed[ed_min_clock];
0002d5 9adf      	SBI  0x1B,7
0002d6 2dec      	MOV  R30,R12
                 _0x124:
0002d7 e0f0      	LDI  R31,0
0002d8 56ea      	SUBI R30,LOW(-_speed)
0002d9 4ffd      	SBCI R31,HIGH(-_speed)
0002da 81e0      	LD   R30,Z
0002db bbe5      	OUT  0x15,R30
                 ; 0000 01E8 
                 ; 0000 01E9      break;
                 ; 0000 01EA         }
                 _0x3D:
                 ; 0000 01EB 
                 ; 0000 01EC 
                 ; 0000 01ED   flag=0;
0002dc 94e8      	CLT
0002dd f820      	BLD  R2,0
                 ; 0000 01EE 
                 ; 0000 01EF }
                 _0x12A:
0002de 91e9      	LD   R30,Y+
0002df bfef      	OUT  SREG,R30
0002e0 91f9      	LD   R31,Y+
0002e1 91e9      	LD   R30,Y+
0002e2 91a9      	LD   R26,Y+
0002e3 9518      	RETI
                 ; .FEND
                 ;
                 ;
                 ;
                 ;
                 ;
                 ;
                 ;
                 ;
                 ;
                 ;// Voltage Reference: Int., cap. on AREF
                 ;#define ADC_VREF_TYPE ((1<<REFS1) | (1<<REFS0) | (0<<ADLAR))
                 ;
                 ;// ADC interrupt service routine
                 ;interrupt [ADC_INT] void adc_isr(void)
                 ; 0000 01FE {
                 _adc_isr:
                 ; .FSTART _adc_isr
0002e4 93ea      	ST   -Y,R30
0002e5 93fa      	ST   -Y,R31
                 ; 0000 01FF 
                 ; 0000 0200 // Read the AD conversion result
                 ; 0000 0201 adc_data=ADCW;
0002e6 b1e4      	IN   R30,0x4
0002e7 b1f5      	IN   R31,0x4+1
0002e8 93e0 026b 	STS  _adc_data,R30
0002ea 93f0 026c 	STS  _adc_data+1,R31
                 ; 0000 0202 // Place your code here
                 ; 0000 0203     work=3;
0002ec e0e3      	LDI  R30,LOW(3)
0002ed 93e0 0257 	STS  _work,R30
                 ; 0000 0204 
                 ; 0000 0205 
                 ; 0000 0206 }
0002ef 91f9      	LD   R31,Y+
0002f0 91e9      	LD   R30,Y+
0002f1 9518      	RETI
                 ; .FEND
                 ;
                 ;void main(void)
                 ; 0000 0209 {
                 _main:
                 ; .FSTART _main
                 ; 0000 020A // Declare your local variables here
                 ; 0000 020B 
                 ; 0000 020C // Input/Output Ports initialization
                 ; 0000 020D // Port A initialization
                 ; 0000 020E // Function: Bit7=Out Bit6=Out Bit5=Out Bit4=Out Bit3=Out Bit2=Out Bit1=Out Bit0=In
                 ; 0000 020F DDRA=(1<<DDA7) | (1<<DDA6) | (1<<DDA5) | (1<<DDA4) | (1<<DDA3) | (1<<DDA2) | (1<<DDA1) | (0<<DDA0);
0002f2 efee      	LDI  R30,LOW(254)
0002f3 bbea      	OUT  0x1A,R30
                 ; 0000 0210 // State: Bit7=0 Bit6=0 Bit5=0 Bit4=0 Bit3=0 Bit2=0 Bit1=0 Bit0=T
                 ; 0000 0211 PORTA=(0<<PORTA7) | (0<<PORTA6) | (0<<PORTA5) | (0<<PORTA4) | (0<<PORTA3) | (0<<PORTA2) | (0<<PORTA1) | (0<<PORTA0);
0002f4 e0e0      	LDI  R30,LOW(0)
0002f5 bbeb      	OUT  0x1B,R30
                 ; 0000 0212 
                 ; 0000 0213 // Port B initialization
                 ; 0000 0214 // Function: Bit7=In Bit6=In Bit5=In Bit4=In Bit3=In Bit2=In Bit1=In Bit0=In
                 ; 0000 0215 DDRB=(0<<DDB7) | (0<<DDB6) | (0<<DDB5) | (0<<DDB4) | (0<<DDB3) | (0<<DDB2) | (0<<DDB1) | (0<<DDB0);
0002f6 bbe7      	OUT  0x17,R30
                 ; 0000 0216 // State: Bit7=T Bit6=T Bit5=T Bit4=T Bit3=T Bit2=T Bit1=T Bit0=T
                 ; 0000 0217 PORTB=(0<<PORTB7) | (0<<PORTB6) | (0<<PORTB5) | (0<<PORTB4) | (0<<PORTB3) | (0<<PORTB2) | (0<<PORTB1) | (0<<PORTB0);
0002f7 bbe8      	OUT  0x18,R30
                 ; 0000 0218 
                 ; 0000 0219 // Port C initialization
                 ; 0000 021A // Function: Bit7=Out Bit6=Out Bit5=Out Bit4=Out Bit3=Out Bit2=Out Bit1=Out Bit0=Out
                 ; 0000 021B DDRC=(1<<DDC7) | (1<<DDC6) | (1<<DDC5) | (1<<DDC4) | (1<<DDC3) | (1<<DDC2) | (1<<DDC1) | (1<<DDC0);
0002f8 efef      	LDI  R30,LOW(255)
0002f9 bbe4      	OUT  0x14,R30
                 ; 0000 021C // State: Bit7=0 Bit6=0 Bit5=0 Bit4=0 Bit3=0 Bit2=0 Bit1=0 Bit0=0
                 ; 0000 021D PORTC=(0<<PORTC7) | (0<<PORTC6) | (0<<PORTC5) | (0<<PORTC4) | (0<<PORTC3) | (0<<PORTC2) | (0<<PORTC1) | (0<<PORTC0);
0002fa e0e0      	LDI  R30,LOW(0)
0002fb bbe5      	OUT  0x15,R30
                 ; 0000 021E 
                 ; 0000 021F // Port D initialization
                 ; 0000 0220 // Function: Bit7=Out Bit6=In Bit5=In Bit4=In Bit3=In Bit2=In Bit1=In Bit0=In
                 ; 0000 0221 DDRD=(1<<DDD7) | (1<<DDD6) | (1<<DDD5) | (0<<DDD4) | (0<<DDD3) | (0<<DDD2) | (0<<DDD1) | (0<<DDD0);
0002fc eee0      	LDI  R30,LOW(224)
0002fd bbe1      	OUT  0x11,R30
                 ; 0000 0222 // State: Bit7=0 Bit6=T Bit5=P Bit4=T Bit3=T Bit2=T Bit1=T Bit0=T
                 ; 0000 0223 PORTD=(0<<PORTD7) | (0<<PORTD6) | (0<<PORTD5) | (1<<PORTD4) | (0<<PORTD3) | (0<<PORTD2) | (0<<PORTD1) | (0<<PORTD0);
0002fe e1e0      	LDI  R30,LOW(16)
0002ff bbe2      	OUT  0x12,R30
                 ; 0000 0224 
                 ; 0000 0225 // Timer/Counter 0 initialization
                 ; 0000 0226 // Clock source: System Clock
                 ; 0000 0227 // Clock value: Timer 0 Stopped
                 ; 0000 0228 // Mode: Normal top=0xFF
                 ; 0000 0229 // OC0 output: Disconnected
                 ; 0000 022A TCCR0=(0<<WGM00) | (0<<COM01) | (0<<COM00) | (0<<WGM01) | (0<<CS02) | (1<<CS01) | (1<<CS00);
000300 e0e3      	LDI  R30,LOW(3)
000301 bfe3      	OUT  0x33,R30
                 ; 0000 022B TCNT0=0x64;
000302 e6e4      	LDI  R30,LOW(100)
000303 bfe2      	OUT  0x32,R30
                 ; 0000 022C OCR0=0x00;
000304 e0e0      	LDI  R30,LOW(0)
000305 bfec      	OUT  0x3C,R30
                 ; 0000 022D 
                 ; 0000 022E // Timer/Counter 1 initialization
                 ; 0000 022F // Clock source: System Clock
                 ; 0000 0230 // Clock value: 31,250 kHz
                 ; 0000 0231 // Mode: Normal top=0xFFFF
                 ; 0000 0232 // OC1A output: Disconnected
                 ; 0000 0233 // OC1B output: Disconnected
                 ; 0000 0234 // Noise Canceler: Off
                 ; 0000 0235 // Input Capture on Falling Edge
                 ; 0000 0236 // Timer Period: 2 s
                 ; 0000 0237 // Timer1 Overflow Interrupt: On
                 ; 0000 0238 // Input Capture Interrupt: Off
                 ; 0000 0239 // Compare A Match Interrupt: Off
                 ; 0000 023A // Compare B Match Interrupt: Off
                 ; 0000 023B TCCR1A=(0<<COM1A1) | (0<<COM1A0) | (0<<COM1B1) | (0<<COM1B0) | (0<<WGM11) | (0<<WGM10);
000306 bdef      	OUT  0x2F,R30
                 ; 0000 023C TCCR1B=(0<<ICNC1) | (0<<ICES1) | (0<<WGM13) | (0<<WGM12) | (0<<CS12) | (0<<CS11) | (0<<CS10);
000307 bdee      	OUT  0x2E,R30
                 ; 0000 023D TCNT1H=0x00;
000308 bded      	OUT  0x2D,R30
                 ; 0000 023E TCNT1L=0x00;
000309 bdec      	OUT  0x2C,R30
                 ; 0000 023F ICR1H=0x00;
00030a bde7      	OUT  0x27,R30
                 ; 0000 0240 ICR1L=0x00;
00030b bde6      	OUT  0x26,R30
                 ; 0000 0241 OCR1AH=0x00;
00030c bdeb      	OUT  0x2B,R30
                 ; 0000 0242 OCR1AL=0x00;
00030d bdea      	OUT  0x2A,R30
                 ; 0000 0243 OCR1BH=0x00;
00030e bde9      	OUT  0x29,R30
                 ; 0000 0244 OCR1BL=0x00;
00030f bde8      	OUT  0x28,R30
                 ; 0000 0245 
                 ; 0000 0246 // Timer/Counter 2 initialization
                 ; 0000 0247 // Clock source: System Clock
                 ; 0000 0248 // Clock value: Timer2 Stopped
                 ; 0000 0249 // Mode: Normal top=0xFF
                 ; 0000 024A // OC2 output: Disconnected
                 ; 0000 024B ASSR=0<<AS2;
000310 bde2      	OUT  0x22,R30
                 ; 0000 024C TCCR2=(0<<PWM2) | (0<<COM21) | (0<<COM20) | (0<<CTC2) | (1<<CS22) | (1<<CS21) | (1<<CS20);
000311 e0e7      	LDI  R30,LOW(7)
000312 bde5      	OUT  0x25,R30
                 ; 0000 024D TCNT2=0x00;
000313 e0e0      	LDI  R30,LOW(0)
000314 bde4      	OUT  0x24,R30
                 ; 0000 024E OCR2=0x00;
000315 bde3      	OUT  0x23,R30
                 ; 0000 024F 
                 ; 0000 0250 // Timer(s)/Counter(s) Interrupt(s) initialization
                 ; 0000 0251 TIMSK=(0<<OCIE2) | (0<<TOIE2) | (0<<TICIE1) | (0<<OCIE1A) | (0<<OCIE1B) | (0<<TOIE1) | (0<<OCIE0) | (1<<TOIE0);
000316 e0e1      	LDI  R30,LOW(1)
000317 bfe9      	OUT  0x39,R30
                 ; 0000 0252 
                 ; 0000 0253 
                 ; 0000 0254 // External Interrupt(s) initialization
                 ; 0000 0255 // INT0: On
                 ; 0000 0256 // INT0 Mode: Any change
                 ; 0000 0257 // INT1: Off
                 ; 0000 0258 // INT2: Off
                 ; 0000 0259 GICR|=(0<<INT1) | (0<<INT0) | (0<<INT2);
000318 b7eb      	IN   R30,0x3B
000319 bfeb      	OUT  0x3B,R30
                 ; 0000 025A MCUCR=(0<<ISC11) | (0<<ISC10) | (0<<ISC01) | (1<<ISC00);
00031a e0e1      	LDI  R30,LOW(1)
00031b bfe5      	OUT  0x35,R30
                 ; 0000 025B MCUCSR=(0<<ISC2);
00031c e0e0      	LDI  R30,LOW(0)
00031d bfe4      	OUT  0x34,R30
                 ; 0000 025C GIFR=(0<<INTF1) | (0<<INTF0) | (0<<INTF2);
00031e bfea      	OUT  0x3A,R30
                 ; 0000 025D 
                 ; 0000 025E // USART initialization
                 ; 0000 025F // Communication Parameters: 8 Data, 1 Stop, No Parity
                 ; 0000 0260 // USART Receiver: On
                 ; 0000 0261 // USART Transmitter: On
                 ; 0000 0262 // USART Mode: Asynchronous
                 ; 0000 0263 // USART Baud Rate: 9600
                 ; 0000 0264 UCSRA=(0<<RXC) | (0<<TXC) | (0<<UDRE) | (0<<FE) | (0<<DOR) | (0<<UPE) | (0<<U2X) | (0<<MPCM);
00031f b9eb      	OUT  0xB,R30
                 ; 0000 0265 UCSRB=(1<<RXCIE) | (0<<TXCIE) | (0<<UDRIE) | (1<<RXEN) | (1<<TXEN) | (0<<UCSZ2) | (0<<RXB8) | (0<<TXB8);
000320 e9e8      	LDI  R30,LOW(152)
000321 b9ea      	OUT  0xA,R30
                 ; 0000 0266 UCSRC=(1<<URSEL) | (0<<UMSEL) | (0<<UPM1) | (0<<UPM0) | (0<<USBS) | (1<<UCSZ1) | (1<<UCSZ0) | (0<<UCPOL);
000322 e8e6      	LDI  R30,LOW(134)
000323 bde0      	OUT  0x20,R30
                 ; 0000 0267 UBRRH=0x00;
000324 e0e0      	LDI  R30,LOW(0)
000325 bde0      	OUT  0x20,R30
                 ; 0000 0268 UBRRL=0x33;
000326 e3e3      	LDI  R30,LOW(51)
000327 b9e9      	OUT  0x9,R30
                 ; 0000 0269 
                 ; 0000 026A // Analog Comparator initialization
                 ; 0000 026B // Analog Comparator: Off
                 ; 0000 026C // The Analog Comparator's positive input is
                 ; 0000 026D // connected to the AIN0 pin
                 ; 0000 026E // The Analog Comparator's negative input is
                 ; 0000 026F // connected to the AIN1 pin
                 ; 0000 0270 ACSR=(1<<ACD) | (0<<ACBG) | (0<<ACO) | (0<<ACI) | (0<<ACIE) | (0<<ACIC) | (0<<ACIS1) | (0<<ACIS0);
000328 e8e0      	LDI  R30,LOW(128)
000329 b9e8      	OUT  0x8,R30
                 ; 0000 0271 
                 ; 0000 0272 // ADC initialization
                 ; 0000 0273 // ADC Clock frequency: 250,000 kHz
                 ; 0000 0274 // ADC Voltage Reference: Int., cap. on AREF
                 ; 0000 0275 // ADC Auto Trigger Source: Free Running
                 ; 0000 0276 //ADMUX=0;
                 ; 0000 0277 //ADCSRA=(0<<ADEN) | (0<<ADSC) | (1<<ADATE) | (0<<ADIF) | (1<<ADIE) | (1<<ADPS2) | (0<<ADPS1) | (1<<ADPS0);
                 ; 0000 0278 //SFIOR=(0<<ADTS2) | (0<<ADTS1) | (0<<ADTS0);
                 ; 0000 0279 
                 ; 0000 027A    // ADC initialization
                 ; 0000 027B // ADC Clock frequency: 125,000 kHz
                 ; 0000 027C // ADC Voltage Reference: AREF pin
                 ; 0000 027D // ADC Auto Trigger Source: Timer0 Overflow
                 ; 0000 027E ADMUX=0xC0;
00032a ece0      	LDI  R30,LOW(192)
00032b b9e7      	OUT  0x7,R30
                 ; 0000 027F ADCSRA=(0<<ADEN) | (0<<ADSC) | (1<<ADATE) | (0<<ADIF) | (0<<ADIE)
                 ; 0000 0280  | (1<<ADPS2) | (0<<ADPS1) | (1<<ADPS0);
00032c e2e5      	LDI  R30,LOW(37)
00032d b9e6      	OUT  0x6,R30
                 ; 0000 0281 //ADCSRA=0x2E;
                 ; 0000 0282 SFIOR&=0x1F;
00032e b7e0      	IN   R30,0x30
00032f 71ef      	ANDI R30,LOW(0x1F)
000330 bfe0      	OUT  0x30,R30
                 ; 0000 0283 SFIOR|=0x80;
000331 b7e0      	IN   R30,0x30
000332 68e0      	ORI  R30,0x80
000333 bfe0      	OUT  0x30,R30
                 ; 0000 0284 
                 ; 0000 0285 // SPI initialization
                 ; 0000 0286 // SPI disabled
                 ; 0000 0287 SPCR=(0<<SPIE) | (0<<SPE) | (0<<DORD) | (0<<MSTR) | (0<<CPOL) | (0<<CPHA) | (0<<1) | (0<<0);
000334 e0e0      	LDI  R30,LOW(0)
000335 b9ed      	OUT  0xD,R30
                 ; 0000 0288 
                 ; 0000 0289 // TWI initialization
                 ; 0000 028A // TWI disabled
                 ; 0000 028B TWCR=(0<<TWEA) | (0<<TWSTA) | (0<<TWSTO) | (0<<TWEN) | (0<<TWIE);
000336 bfe6      	OUT  0x36,R30
                 ; 0000 028C 
                 ; 0000 028D // Bit-Banged I2C Bus initialization
                 ; 0000 028E // I2C Port: PORTD
                 ; 0000 028F // I2C SDA bit: 1
                 ; 0000 0290 // I2C SCL bit: 3
                 ; 0000 0291 // Bit Rate: 100 kHz
                 ; 0000 0292 // Note: I2C settings are specified in the
                 ; 0000 0293 // Project|Configure|C Compiler|Libraries|I2C menu.
                 ; 0000 0294 i2c_init();
000337 940e 0bd8 	CALL _i2c_init
                 ; 0000 0295 
                 ; 0000 0296 // 1 Wire Bus initialization
                 ; 0000 0297 // 1 Wire Data port: PORTD
                 ; 0000 0298 // 1 Wire Data bit: 5
                 ; 0000 0299 // Note: 1 Wire port settings are specified in the
                 ; 0000 029A // Project|Configure|C Compiler|Libraries|1 Wire menu.
                 ; 0000 029B w1_init();
000339 940e 0c33 	CALL _w1_init
                 ; 0000 029C 
                 ; 0000 029D 
                 ; 0000 029E // DS1307 Real Time Clock initialization
                 ; 0000 029F // Square wave output on pin SQW/OUT: On
                 ; 0000 02A0 // Square wave frequency: 1Hz
                 ; 0000 02A1 rtc_init(0,1,0);
00033b e0e0      	LDI  R30,LOW(0)
00033c 93ea      	ST   -Y,R30
00033d e0e1      	LDI  R30,LOW(1)
00033e 93ea      	ST   -Y,R30
00033f e0a0      	LDI  R26,LOW(0)
000340 940e 0906 	CALL _rtc_init
                 ; 0000 02A2 
                 ; 0000 02A3 // Alphanumeric LCD initialization
                 ; 0000 02A4 // Connections are specified in the
                 ; 0000 02A5 // Project|Configure|C Compiler|Libraries|Alphanumeric LCD menu:
                 ; 0000 02A6 // RS - PORTB Bit 0
                 ; 0000 02A7 // RD - PORTB Bit 1
                 ; 0000 02A8 // EN - PORTB Bit 2
                 ; 0000 02A9 // D4 - PORTB Bit 3
                 ; 0000 02AA // D5 - PORTB Bit 4
                 ; 0000 02AB // D6 - PORTB Bit 5
                 ; 0000 02AC // D7 - PORTB Bit 6
                 ; 0000 02AD // Characters/line: 8
                 ; 0000 02AE lcd_init(16);
000342 e1a0      	LDI  R26,LOW(16)
000343 940e 09dd 	CALL _lcd_init
                 ; 0000 02AF 
                 ; 0000 02B0 // Global enable interrupts
                 ; 0000 02B1 
                 ; 0000 02B2 
                 ; 0000 02B3   test=1;
000345 e0e1      	LDI  R30,LOW(1)
000346 93e0 0258 	STS  _test,R30
                 ; 0000 02B4 
                 ; 0000 02B5  lcd_gotoxy(0,0);
000348 940e 0a95 	CALL SUBOPT_0x1
                 ; 0000 02B6 lcd_puts("GPS info system");
                +
00034a e6af     +LDI R26 , LOW ( _0x5F + ( 0 ) )
00034b e0b1     +LDI R27 , HIGH ( _0x5F + ( 0 ) )
                 	__POINTW2MN _0x5F,0
00034c 940e 0add 	CALL SUBOPT_0xA
                 ; 0000 02B7 
                 ; 0000 02B8 lcd_gotoxy(0,1);
                 ; 0000 02B9 lcd_puts("Ver. 18.04.2019");
                +
00034e e7af     +LDI R26 , LOW ( _0x5F + ( 16 ) )
00034f e0b1     +LDI R27 , HIGH ( _0x5F + ( 16 ) )
                 	__POINTW2MN _0x5F,16
000350 940e 0ae4 	CALL SUBOPT_0xB
                 ; 0000 02BA    delay_ms(1000);
                 ; 0000 02BB   lcd_clear();
                 ; 0000 02BC 
                 ; 0000 02BD 
                 ; 0000 02BE 
                 ; 0000 02BF 
                 ; 0000 02C0  lcd_gotoxy(1,0);
000352 e0e1      	LDI  R30,LOW(1)
000353 940e 0aa1 	CALL SUBOPT_0x3
                 ; 0000 02C1 lcd_puts("M8030 NEO-M8N");
                +
000355 e8af     +LDI R26 , LOW ( _0x5F + ( 32 ) )
000356 e0b1     +LDI R27 , HIGH ( _0x5F + ( 32 ) )
                 	__POINTW2MN _0x5F,32
000357 940e 09cc 	CALL _lcd_puts
                 ; 0000 02C2 
                 ; 0000 02C3 
                 ; 0000 02C4 lcd_gotoxy(1,1);
000359 e0e1      	LDI  R30,LOW(1)
00035a 940e 0aec 	CALL SUBOPT_0xC
                 ; 0000 02C5 lcd_puts("FLASH  BN-280");
                +
00035c e9ad     +LDI R26 , LOW ( _0x5F + ( 46 ) )
00035d e0b1     +LDI R27 , HIGH ( _0x5F + ( 46 ) )
                 	__POINTW2MN _0x5F,46
00035e 940e 0ae4 	CALL SUBOPT_0xB
                 ; 0000 02C6 
                 ; 0000 02C7 
                 ; 0000 02C8  delay_ms(1000);
                 ; 0000 02C9   lcd_clear();
                 ; 0000 02CA 
                 ; 0000 02CB 
                 ; 0000 02CC 
                 ; 0000 02CD 
                 ; 0000 02CE 
                 ; 0000 02CF 
                 ; 0000 02D0 lcd_gotoxy(3,0);
000360 e0e3      	LDI  R30,LOW(3)
000361 940e 0aa1 	CALL SUBOPT_0x3
                 ; 0000 02D1 lcd_puts("PSA  Groupe");
                +
000363 eaab     +LDI R26 , LOW ( _0x5F + ( 60 ) )
000364 e0b1     +LDI R27 , HIGH ( _0x5F + ( 60 ) )
                 	__POINTW2MN _0x5F,60
000365 940e 09cc 	CALL _lcd_puts
                 ; 0000 02D2 
                 ; 0000 02D3   lcd_gotoxy(3,1);
000367 e0e3      	LDI  R30,LOW(3)
000368 940e 0aec 	CALL SUBOPT_0xC
                 ; 0000 02D4 lcd_puts("PEUGEOT 307");
                +
00036a eba7     +LDI R26 , LOW ( _0x5F + ( 72 ) )
00036b e0b1     +LDI R27 , HIGH ( _0x5F + ( 72 ) )
                 	__POINTW2MN _0x5F,72
00036c 940e 09cc 	CALL _lcd_puts
                 ; 0000 02D5 
                 ; 0000 02D6 
                 ; 0000 02D7 
                 ; 0000 02D8 
                 ; 0000 02D9 
                 ; 0000 02DA 
                 ; 0000 02DB 
                 ; 0000 02DC 
                 ; 0000 02DD 
                 ; 0000 02DE     if(PIND.4==0)
00036e 9984      	SBIC 0x10,4
00036f c007      	RJMP _0x60
                 ; 0000 02DF 
                 ; 0000 02E0              rtc_set_time(9,0,0);
000370 e0e9      	LDI  R30,LOW(9)
000371 93ea      	ST   -Y,R30
000372 e0e0      	LDI  R30,LOW(0)
000373 93ea      	ST   -Y,R30
000374 e0a0      	LDI  R26,LOW(0)
000375 940e 0942 	CALL _rtc_set_time
                 ; 0000 02E1 
                 ; 0000 02E2     #asm("sei")
                 _0x60:
000377 9478      	sei
                 ; 0000 02E3 
                 ; 0000 02E4 
                 ; 0000 02E5          // zvuk();
                 ; 0000 02E6       putchar('v');
000378 e7a6      	LDI  R26,LOW(118)
000379 940e 0a0c 	CALL _putchar
                 ; 0000 02E7 
                 ; 0000 02E8   //    PORTA=0;
                 ; 0000 02E9 
                 ; 0000 02EA    //   #asm("cli")
                 ; 0000 02EB 
                 ; 0000 02EC 
                 ; 0000 02ED 
                 ; 0000 02EE 
                 ; 0000 02EF              for(j=0;j<10;j++)
00037b 24dd      	CLR  R13
                 _0x62:
00037c e0ea      	LDI  R30,LOW(10)
00037d 16de      	CP   R13,R30
00037e f4c8      	BRSH _0x63
                 ; 0000 02F0           {
                 ; 0000 02F1 
                 ; 0000 02F2           deset_speed=j;
00037f 2c8d      	MOV  R8,R13
                 ; 0000 02F3           ed_speed=j;
000380 2c9d      	MOV  R9,R13
                 ; 0000 02F4          if(j<2) soten_speed=j;
000381 e0e2      	LDI  R30,LOW(2)
000382 16de      	CP   R13,R30
000383 f408      	BRSH _0x64
000384 2cbd      	MOV  R11,R13
                 ; 0000 02F5          if(j<3) decet_Hours_clock=j;
                 _0x64:
000385 e0e3      	LDI  R30,LOW(3)
000386 16de      	CP   R13,R30
000387 f410      	BRSH _0x65
000388 92d0 024d 	STS  _decet_Hours_clock,R13
                 ; 0000 02F6           if(j<6)decet_min_clock=j;
                 _0x65:
00038a e0e6      	LDI  R30,LOW(6)
00038b 16de      	CP   R13,R30
00038c f410      	BRSH _0x66
00038d 92d0 024b 	STS  _decet_min_clock,R13
                 ; 0000 02F7             ed_min_clock=j;
                 _0x66:
00038f 2ccd      	MOV  R12,R13
                 ; 0000 02F8 
                 ; 0000 02F9           ed_hours_clock=j;
000390 92d0 024c 	STS  _ed_hours_clock,R13
                 ; 0000 02FA            delay_ms(200);
000392 eca8      	LDI  R26,LOW(200)
000393 e0b0      	LDI  R27,0
000394 940e 0c29 	CALL _delay_ms
                 ; 0000 02FB 
                 ; 0000 02FC      }
000396 94d3      	INC  R13
000397 cfe4      	RJMP _0x62
                 _0x63:
                 ; 0000 02FD 
                 ; 0000 02FE 
                 ; 0000 02FF 
                 ; 0000 0300           delay_ms(500);
000398 efa4      	LDI  R26,LOW(500)
000399 e0b1      	LDI  R27,HIGH(500)
00039a 940e 0c29 	CALL _delay_ms
                 ; 0000 0301 
                 ; 0000 0302 
                 ; 0000 0303              test=0;
00039c e0e0      	LDI  R30,LOW(0)
00039d 93e0 0258 	STS  _test,R30
                 ; 0000 0304 
                 ; 0000 0305         soten_speed = 0;
00039f 24bb      	CLR  R11
                 ; 0000 0306             deset_speed= 0;
0003a0 2488      	CLR  R8
                 ; 0000 0307               ed_speed= 0;
0003a1 2499      	CLR  R9
                 ; 0000 0308 
                 ; 0000 0309 
                 ; 0000 030A 
                 ; 0000 030B       lcd_clear();
0003a2 940e 099e 	CALL _lcd_clear
                 ; 0000 030C 
                 ; 0000 030D 
                 ; 0000 030E 
                 ; 0000 030F      lcd_gotoxy(3,0);
0003a4 e0e3      	LDI  R30,LOW(3)
0003a5 940e 0aa1 	CALL SUBOPT_0x3
                 ; 0000 0310 
                 ; 0000 0311         lcd_puts(":");
                +
0003a7 eca3     +LDI R26 , LOW ( _0x5F + ( 84 ) )
0003a8 e0b1     +LDI R27 , HIGH ( _0x5F + ( 84 ) )
                 	__POINTW2MN _0x5F,84
0003a9 940e 09cc 	CALL _lcd_puts
                 ; 0000 0312 
                 ; 0000 0313         lcd_gotoxy(10,0);
0003ab e0ea      	LDI  R30,LOW(10)
0003ac 940e 0aa1 	CALL SUBOPT_0x3
                 ; 0000 0314 
                 ; 0000 0315         lcd_puts("S=");
                +
0003ae eca5     +LDI R26 , LOW ( _0x5F + ( 86 ) )
0003af e0b1     +LDI R27 , HIGH ( _0x5F + ( 86 ) )
                 	__POINTW2MN _0x5F,86
0003b0 940e 0add 	CALL SUBOPT_0xA
                 ; 0000 0316 
                 ; 0000 0317 
                 ; 0000 0318        lcd_gotoxy(0,1);
                 ; 0000 0319 
                 ; 0000 031A       lcd_puts("t=");
                +
0003b2 eca8     +LDI R26 , LOW ( _0x5F + ( 89 ) )
0003b3 e0b1     +LDI R27 , HIGH ( _0x5F + ( 89 ) )
                 	__POINTW2MN _0x5F,89
0003b4 940e 09cc 	CALL _lcd_puts
                 ; 0000 031B 
                 ; 0000 031C         lcd_gotoxy(10,1);
0003b6 e0ea      	LDI  R30,LOW(10)
0003b7 940e 0aec 	CALL SUBOPT_0xC
                 ; 0000 031D       lcd_puts("V=");
                +
0003b9 ecab     +LDI R26 , LOW ( _0x5F + ( 92 ) )
0003ba e0b1     +LDI R27 , HIGH ( _0x5F + ( 92 ) )
                 	__POINTW2MN _0x5F,92
0003bb 940e 09cc 	CALL _lcd_puts
                 ; 0000 031E 
                 ; 0000 031F 
                 ; 0000 0320             ADCSRA|= (1<<ADIE);
0003bd 9a33      	SBI  0x6,3
                 ; 0000 0321 
                 ; 0000 0322 
                 ; 0000 0323    GICR|=(0<<INT1) | (1<<INT0) | (0<<INT2);
0003be b7eb      	IN   R30,0x3B
0003bf 64e0      	ORI  R30,0x40
0003c0 bfeb      	OUT  0x3B,R30
                 ; 0000 0324    GIFR=(0<<INTF1) | (1<<INTF0) | (0<<INTF2);
0003c1 e4e0      	LDI  R30,LOW(64)
0003c2 bfea      	OUT  0x3A,R30
                 ; 0000 0325 
                 ; 0000 0326             st_s=10;
0003c3 e0ea      	LDI  R30,LOW(10)
0003c4 93e0 0266 	STS  _st_s,R30
                 ; 0000 0327 
                 ; 0000 0328      /*
                 ; 0000 0329 
                 ; 0000 032A 
                 ; 0000 032B    ftoa(copy/10,1,lcd_buf);
                 ; 0000 032C 
                 ; 0000 032D 
                 ; 0000 032E          soten_speed = 0;
                 ; 0000 032F             deset_speed= 0;
                 ; 0000 0330               ed_speed= 0;
                 ; 0000 0331 
                 ; 0000 0332  if(copy >0)
                 ; 0000 0333  {
                 ; 0000 0334    // strcpy( lcd_buf1, lcd_buf);
                 ; 0000 0335 
                 ; 0000 0336  for(i=9;i<255;i--)
                 ; 0000 0337 
                 ; 0000 0338     lcd_buf[i+1]= lcd_buf[i];
                 ; 0000 0339 
                 ; 0000 033A 
                 ; 0000 033B   lcd_buf[0]='+';
                 ; 0000 033C 
                 ; 0000 033D       }
                 ; 0000 033E 
                 ; 0000 033F   lcd_puts(lcd_buf);
                 ; 0000 0340 
                 ; 0000 0341      */
                 ; 0000 0342 
                 ; 0000 0343     //   #asm("sei")
                 ; 0000 0344 
                 ; 0000 0345 while (1)
                 _0x67:
                 ; 0000 0346       {
                 ; 0000 0347       // Place your code here
                 ; 0000 0348        // Place your code here
                 ; 0000 0349 m1:
                 _0x6A:
                 ; 0000 034A 
                 ; 0000 034B 
                 ; 0000 034C 
                 ; 0000 034D    while(work==0 && work_gps==0){};
                 _0x6B:
0003c6 91a0 0257 	LDS  R26,_work
0003c8 30a0      	CPI  R26,LOW(0x0)
0003c9 f411      	BRNE _0x6E
0003ca 2055      	TST  R5
0003cb f009      	BREQ _0x6F
                 _0x6E:
0003cc c001      	RJMP _0x6D
                 _0x6F:
0003cd cff8      	RJMP _0x6B
                 _0x6D:
                 ; 0000 034E 
                 ; 0000 034F 
                 ; 0000 0350 
                 ; 0000 0351 
                 ; 0000 0352    switch(work)
0003ce 91e0 0257 	LDS  R30,_work
0003d0 940e 0ad8 	CALL SUBOPT_0x9
                 ; 0000 0353 
                 ; 0000 0354 
                 ; 0000 0355    {
                 ; 0000 0356    case 1:
0003d2 f539      	BRNE _0x73
                 ; 0000 0357    tim();
0003d3 ddb9      	RCALL _tim
                 ; 0000 0358       ++st;
0003d4 91e0 0251 	LDS  R30,_st
0003d6 5fef      	SUBI R30,-LOW(1)
0003d7 93e0 0251 	STS  _st,R30
                 ; 0000 0359    if(st==2)
0003d9 91a0 0251 	LDS  R26,_st
0003db 30a2      	CPI  R26,LOW(0x2)
0003dc f489      	BRNE _0x74
                 ; 0000 035A    {
                 ; 0000 035B    flag=1;
0003dd 9468      	SET
0003de f820      	BLD  R2,0
                 ; 0000 035C    while(flag==1){}
                 _0x75:
0003df fc20      	SBRC R2,0
0003e0 cffe      	RJMP _0x75
                 ; 0000 035D     w1_init();
0003e1 940e 0c33 	CALL _w1_init
                 ; 0000 035E  w1_write(0xCC);
0003e3 ecac      	LDI  R26,LOW(204)
0003e4 940e 0c79 	CALL _w1_write
                 ; 0000 035F    w1_write(0x44);
0003e6 e4a4      	LDI  R26,LOW(68)
0003e7 940e 0c79 	CALL _w1_write
                 ; 0000 0360 
                 ; 0000 0361     adc_on;
0003e9 9a37      	SBI  0x6,7
                 ; 0000 0362     work=3;
0003ea e0e3      	LDI  R30,LOW(3)
0003eb 93e0 0257 	STS  _work,R30
                 ; 0000 0363 
                 ; 0000 0364 
                 ; 0000 0365             continue;
0003ed cfd8      	RJMP _0x67
                 ; 0000 0366 
                 ; 0000 0367       }
                 ; 0000 0368      if(st==4)
                 _0x74:
0003ee 91a0 0251 	LDS  R26,_st
0003f0 30a4      	CPI  R26,LOW(0x4)
0003f1 f439      	BRNE _0x78
                 ; 0000 0369      {
                 ; 0000 036A        st=0;
0003f2 e0e0      	LDI  R30,LOW(0)
0003f3 93e0 0251 	STS  _st,R30
                 ; 0000 036B         work=2;
0003f5 e0e2      	LDI  R30,LOW(2)
0003f6 93e0 0257 	STS  _work,R30
                 ; 0000 036C        continue;
0003f8 cfcd      	RJMP _0x67
                 ; 0000 036D        }
                 ; 0000 036E     work=0;
                 _0x78:
0003f9 c1bc      	RJMP _0x125
                 ; 0000 036F     break;
                 ; 0000 0370 
                 ; 0000 0371 
                 ; 0000 0372     case 2:
                 _0x73:
0003fa 30e2      	CPI  R30,LOW(0x2)
0003fb e0a0      	LDI  R26,HIGH(0x2)
0003fc 07fa      	CPC  R31,R26
0003fd f009      	BREQ PC+2
0003fe c139      	RJMP _0x79
                 ; 0000 0373 
                 ; 0000 0374      flag=1;
0003ff 9468      	SET
000400 f820      	BLD  R2,0
                 ; 0000 0375    while(flag==1){}
                 _0x7A:
000401 fc20      	SBRC R2,0
000402 cffe      	RJMP _0x7A
                 ; 0000 0376   error = w1_init();
000403 940e 0c33 	CALL _w1_init
000405 93e0 025c 	STS  _error,R30
                 ; 0000 0377 
                 ; 0000 0378   if(error==1)
000407 91a0 025c 	LDS  R26,_error
000409 30a1      	CPI  R26,LOW(0x1)
00040a f009      	BREQ PC+2
00040b c0ad      	RJMP _0x7D
                 ; 0000 0379   {
                 ; 0000 037A  w1_write(0xCC);
00040c ecac      	LDI  R26,LOW(204)
00040d 940e 0c79 	CALL _w1_write
                 ; 0000 037B  w1_write(0xbe);
00040f ebae      	LDI  R26,LOW(190)
000410 940e 0c79 	CALL _w1_write
                 ; 0000 037C          temp_lsb=w1_read();
000412 940e 0c74 	CALL _w1_read
000414 2e6e      	MOV  R6,R30
                 ; 0000 037D          temp_msb=w1_read();
000415 940e 0c74 	CALL _w1_read
000417 2e7e      	MOV  R7,R30
                 ; 0000 037E          w1_read();
000418 940e 0c74 	CALL _w1_read
                 ; 0000 037F          w1_read();
00041a 940e 0c74 	CALL _w1_read
                 ; 0000 0380          w1_read();
00041c 940e 0c74 	CALL _w1_read
                 ; 0000 0381          w1_read();
00041e 940e 0c74 	CALL _w1_read
                 ; 0000 0382          flag=1;
000420 9468      	SET
000421 f820      	BLD  R2,0
                 ; 0000 0383    while(flag==1){}
                 _0x7E:
000422 fc20      	SBRC R2,0
000423 cffe      	RJMP _0x7E
                 ; 0000 0384 
                 ; 0000 0385          cnt_rem=w1_read();;
000424 940e 0c74 	CALL _w1_read
000426 93e0 025a 	STS  _cnt_rem,R30
                 ; 0000 0386          cnt_c=w1_read();
000428 940e 0c74 	CALL _w1_read
00042a 93e0 025b 	STS  _cnt_c,R30
                 ; 0000 0387           w1_read();
00042c 940e 0c74 	CALL _w1_read
                 ; 0000 0388 
                 ; 0000 0389           if (temp_msb>0)
00042e e0e0      	LDI  R30,LOW(0)
00042f 15e7      	CP   R30,R7
000430 f408      	BRSH _0x81
                 ; 0000 038A 
                 ; 0000 038B           temp_lsb = ~ temp_lsb;
000431 9460      	COM  R6
                 ; 0000 038C 
                 ; 0000 038D           temp_lsb = temp_lsb >>1;
                 _0x81:
000432 9466      	LSR  R6
                 ; 0000 038E            copy =  temp_lsb;
000433 2de6      	MOV  R30,R6
000434 e7a0      	LDI  R26,LOW(_copy)
000435 e0b2      	LDI  R27,HIGH(_copy)
000436 940e 0af0 	CALL SUBOPT_0xD
                 ; 0000 038F            wcnt_rem =  cnt_rem;
000438 91e0 025a 	LDS  R30,_cnt_rem
00043a e7a4      	LDI  R26,LOW(_wcnt_rem)
00043b e0b2      	LDI  R27,HIGH(_wcnt_rem)
00043c 940e 0af0 	CALL SUBOPT_0xD
                 ; 0000 0390            wcnt_c = cnt_c;
00043e 91e0 025b 	LDS  R30,_cnt_c
000440 e7a8      	LDI  R26,LOW(_wcnt_c)
000441 e0b2      	LDI  R27,HIGH(_wcnt_c)
000442 940e 0af0 	CALL SUBOPT_0xD
                 ; 0000 0391        if(temp_msb==0)
000444 2077      	TST  R7
000445 f469      	BRNE _0x82
                 ; 0000 0392        {    copy = copy - 0.25;
000446 940e 0af8 	CALL SUBOPT_0xE
                +
000448 e0a0     +LDI R26 , LOW ( 0x3E800000 )
000449 e0b0     +LDI R27 , HIGH ( 0x3E800000 )
00044a e880     +LDI R24 , BYTE3 ( 0x3E800000 )
00044b e39e     +LDI R25 , BYTE4 ( 0x3E800000 )
                 	__GETD2N 0x3E800000
00044c 940e 0b01 	CALL SUBOPT_0xF
                 ; 0000 0393             copy+=(wcnt_c -wcnt_rem)/wcnt_c;
00044e 940e 0b0c 	CALL SUBOPT_0x10
000450 940e 0d29 	CALL __ADDF12
000452 c018      	RJMP _0x126
                 ; 0000 0394              }
                 ; 0000 0395             else
                 _0x82:
                 ; 0000 0396              {
                 ; 0000 0397               copy = copy + 1.25;
000453 940e 0af8 	CALL SUBOPT_0xE
                +
000455 e0a0     +LDI R26 , LOW ( 0x3FA00000 )
000456 e0b0     +LDI R27 , HIGH ( 0x3FA00000 )
000457 ea80     +LDI R24 , BYTE3 ( 0x3FA00000 )
000458 e39f     +LDI R25 , BYTE4 ( 0x3FA00000 )
                 	__GETD2N 0x3FA00000
000459 940e 0d29 	CALL __ADDF12
00045b 940e 0b33 	CALL SUBOPT_0x11
                 ; 0000 0398               copy-=(wcnt_c -wcnt_rem)/wcnt_c;
00045d 940e 0b0c 	CALL SUBOPT_0x10
00045f 940e 0eab 	CALL __SWAPD12
000461 940e 0b01 	CALL SUBOPT_0xF
                 ; 0000 0399               copy*=-1;
000463 940e 0b3c 	CALL SUBOPT_0x12
                +
000465 e0e0     +LDI R30 , LOW ( 0xBF800000 )
000466 e0f0     +LDI R31 , HIGH ( 0xBF800000 )
000467 e860     +LDI R22 , BYTE3 ( 0xBF800000 )
000468 eb7f     +LDI R23 , BYTE4 ( 0xBF800000 )
                 	__GETD1N 0xBF800000
000469 940e 0d79 	CALL __MULF12
                 _0x126:
00046b 93e0 0270 	STS  _copy,R30
00046d 93f0 0271 	STS  _copy+1,R31
00046f 9360 0272 	STS  _copy+2,R22
000471 9370 0273 	STS  _copy+3,R23
                 ; 0000 039A 
                 ; 0000 039B            }
                 ; 0000 039C 
                 ; 0000 039D        copy*=10;
000473 940e 0b45 	CALL SUBOPT_0x13
000475 940e 0d79 	CALL __MULF12
000477 940e 0b33 	CALL SUBOPT_0x11
                 ; 0000 039E 
                 ; 0000 039F 
                 ; 0000 03A0   //     intf(lcd_buf,"t=%.1f", copy/10);
                 ; 0000 03A1 
                 ; 0000 03A2    ftoa(copy/10,1,lcd_buf);
000479 940e 0b45 	CALL SUBOPT_0x13
00047b 940e 0dc7 	CALL __DIVF21
00047d 940e 0ea1 	CALL __PUTPARD1
00047f e0e1      	LDI  R30,LOW(1)
000480 93ea      	ST   -Y,R30
000481 e7ac      	LDI  R26,LOW(_lcd_buf)
000482 e0b2      	LDI  R27,HIGH(_lcd_buf)
000483 940e 0839 	CALL _ftoa
                 ; 0000 03A3 
                 ; 0000 03A4 
                 ; 0000 03A5    //#asm("cli")
                 ; 0000 03A6 
                 ; 0000 03A7 
                 ; 0000 03A8 
                 ; 0000 03A9     //  lcd_puts("t=");
                 ; 0000 03AA 
                 ; 0000 03AB 
                 ; 0000 03AC  if(copy >0)
000485 940e 0b3c 	CALL SUBOPT_0x12
000487 940e 0eb8 	CALL __CPD02
000489 f4e4      	BRGE _0x84
                 ; 0000 03AD  {
                 ; 0000 03AE    // strcpy( lcd_buf1, lcd_buf);
                 ; 0000 03AF 
                 ; 0000 03B0  for(t=9;t<255;t--)
00048a e0e9      	LDI  R30,LOW(9)
00048b 93e0 0261 	STS  _t,R30
                 _0x86:
00048d 91a0 0261 	LDS  R26,_t
00048f 3faf      	CPI  R26,LOW(0xFF)
000490 f490      	BRSH _0x87
                 ; 0000 03B1 
                 ; 0000 03B2     lcd_buf[t+1]= lcd_buf[t];
000491 91e0 0261 	LDS  R30,_t
000493 e0f0      	LDI  R31,0
000494 010f      	MOVW R0,R30
                +
000495 58e3     +SUBI R30 , LOW ( - _lcd_buf - ( 1 ) )
000496 4ffd     +SBCI R31 , HIGH ( - _lcd_buf - ( 1 ) )
                 	__ADDW1MN _lcd_buf,1
000497 01df      	MOVW R26,R30
000498 01f0      	MOVW R30,R0
000499 58e4      	SUBI R30,LOW(-_lcd_buf)
00049a 4ffd      	SBCI R31,HIGH(-_lcd_buf)
00049b 81e0      	LD   R30,Z
00049c 93ec      	ST   X,R30
00049d 91e0 0261 	LDS  R30,_t
00049f 50e1      	SUBI R30,LOW(1)
0004a0 93e0 0261 	STS  _t,R30
0004a2 cfea      	RJMP _0x86
                 _0x87:
                 ; 0000 03B5 lcd_buf[0]='+';
0004a3 e2eb      	LDI  R30,LOW(43)
0004a4 93e0 027c 	STS  _lcd_buf,R30
                 ; 0000 03B6 
                 ; 0000 03B7       }
                 ; 0000 03B8 
                 ; 0000 03B9        flag=1;
                 _0x84:
0004a6 9468      	SET
0004a7 f820      	BLD  R2,0
                 ; 0000 03BA    while(flag==1){}
                 _0x88:
0004a8 fc20      	SBRC R2,0
0004a9 cffe      	RJMP _0x88
                 ; 0000 03BB 
                 ; 0000 03BC      lcd_gotoxy(2,1);
0004aa e0e2      	LDI  R30,LOW(2)
0004ab 940e 0aec 	CALL SUBOPT_0xC
                 ; 0000 03BD 
                 ; 0000 03BE   lcd_puts(lcd_buf);
0004ad 940e 0aae 	CALL SUBOPT_0x5
                 ; 0000 03BF 
                 ; 0000 03C0   lcd_putchar(0xDF);
0004af edaf      	LDI  R26,LOW(223)
0004b0 940e 09ac 	CALL _lcd_putchar
                 ; 0000 03C1   lcd_putchar(0x43);
0004b2 e4a3      	LDI  R26,LOW(67)
0004b3 940e 09ac 	CALL _lcd_putchar
                 ; 0000 03C2   lcd_putchar(0x20);
0004b5 e2a0      	LDI  R26,LOW(32)
0004b6 940e 09ac 	CALL _lcd_putchar
                 ; 0000 03C3    // lcd_puts("*C ");
                 ; 0000 03C4 
                 ; 0000 03C5         }
                 ; 0000 03C6 
                 ; 0000 03C7         else
0004b8 c00b      	RJMP _0x8B
                 _0x7D:
                 ; 0000 03C8         {
                 ; 0000 03C9 
                 ; 0000 03CA    flag=1;
0004b9 9468      	SET
0004ba f820      	BLD  R2,0
                 ; 0000 03CB    while(flag==1){}
                 _0x8C:
0004bb fc20      	SBRC R2,0
0004bc cffe      	RJMP _0x8C
                 ; 0000 03CC           lcd_gotoxy(2,1);
0004bd e0e2      	LDI  R30,LOW(2)
0004be 940e 0aec 	CALL SUBOPT_0xC
                 ; 0000 03CD                      //+55.9*c
                 ; 0000 03CE              lcd_puts("ERROR  ");
                +
0004c0 ecae     +LDI R26 , LOW ( _0x5F + ( 95 ) )
0004c1 e0b1     +LDI R27 , HIGH ( _0x5F + ( 95 ) )
                 	__POINTW2MN _0x5F,95
0004c2 940e 09cc 	CALL _lcd_puts
                 ; 0000 03CF 
                 ; 0000 03D0                     }
                 _0x8B:
                 ; 0000 03D1     //  #asm("sei")
                 ; 0000 03D2 
                 ; 0000 03D3 
                 ; 0000 03D4 
                 ; 0000 03D5 
                 ; 0000 03D6 
                 ; 0000 03D7         if(es_gps > 0)
0004c4 91a0 0259 	LDS  R26,_es_gps
0004c6 30a1      	CPI  R26,LOW(0x1)
0004c7 f408      	BRSH PC+2
0004c8 c06a      	RJMP _0x8F
                 ; 0000 03D8         {
                 ; 0000 03D9 
                 ; 0000 03DA       if(st_po<3)
0004c9 91a0 0253 	LDS  R26,_st_po
0004cb 30a3      	CPI  R26,LOW(0x3)
0004cc f4d0      	BRSH _0x90
                 ; 0000 03DB      {
                 ; 0000 03DC        ++st_po;
0004cd 91e0 0253 	LDS  R30,_st_po
0004cf 5fef      	SUBI R30,-LOW(1)
0004d0 93e0 0253 	STS  _st_po,R30
                 ; 0000 03DD 
                 ; 0000 03DE 
                 ; 0000 03DF            if(st_po==3)
0004d2 91a0 0253 	LDS  R26,_st_po
0004d4 30a3      	CPI  R26,LOW(0x3)
0004d5 f489      	BRNE _0x91
                 ; 0000 03E0             {
                 ; 0000 03E1             ++st_po;
0004d6 5fef      	SUBI R30,-LOW(1)
0004d7 93e0 0253 	STS  _st_po,R30
                 ; 0000 03E2             flag=1;
0004d9 9468      	SET
0004da f820      	BLD  R2,0
                 ; 0000 03E3    while(flag==1){}
                 _0x92:
0004db fc20      	SBRC R2,0
0004dc cffe      	RJMP _0x92
                 ; 0000 03E4 
                 ; 0000 03E5             lcd_gotoxy(0,0);
0004dd 940e 0a95 	CALL SUBOPT_0x1
                 ; 0000 03E6              lcd_puts("               ");
                +
0004df eda6     +LDI R26 , LOW ( _0x5F + ( 103 ) )
0004e0 e0b1     +LDI R27 , HIGH ( _0x5F + ( 103 ) )
                 	__POINTW2MN _0x5F,103
0004e1 940e 0b4b 	CALL SUBOPT_0x14
                 ; 0000 03E7 
                 ; 0000 03E8                 lcd_gotoxy(0,0);
                 ; 0000 03E9           lcd_puts("N=   S=");
                +
0004e3 eea6     +LDI R26 , LOW ( _0x5F + ( 119 ) )
0004e4 e0b1     +LDI R27 , HIGH ( _0x5F + ( 119 ) )
                 	__POINTW2MN _0x5F,119
0004e5 940e 09cc 	CALL _lcd_puts
                 ; 0000 03EA 
                 ; 0000 03EB 
                 ; 0000 03EC              }
                 ; 0000 03ED             }
                 _0x91:
                 ; 0000 03EE       ++err;
                 _0x90:
0004e7 e5a4      	LDI  R26,LOW(_err)
0004e8 e0b2      	LDI  R27,HIGH(_err)
0004e9 91ed      	LD   R30,X+
0004ea 91fd      	LD   R31,X+
0004eb 9631      	ADIW R30,1
0004ec 93fe      	ST   -X,R31
0004ed 93ee      	ST   -X,R30
                 ; 0000 03EF 
                 ; 0000 03F0         switch(err)
0004ee 91e0 0254 	LDS  R30,_err
0004f0 91f0 0255 	LDS  R31,_err+1
                 ; 0000 03F1         {
                 ; 0000 03F2 
                 ; 0000 03F3           case 3:
0004f2 30e3      	CPI  R30,LOW(0x3)
0004f3 e0a0      	LDI  R26,HIGH(0x3)
0004f4 07fa      	CPC  R31,R26
0004f5 f4b9      	BRNE _0x98
                 ; 0000 03F4 
                 ; 0000 03F5           es_gps =1;
0004f6 e0e1      	LDI  R30,LOW(1)
0004f7 93e0 0259 	STS  _es_gps,R30
                 ; 0000 03F6 
                 ; 0000 03F7 
                 ; 0000 03F8 
                 ; 0000 03F9         UCSRB &=~(1<<RXCIE);
0004f9 9857      	CBI  0xA,7
                 ; 0000 03FA 
                 ; 0000 03FB             soten_speed = 0;
0004fa 24bb      	CLR  R11
                 ; 0000 03FC             deset_speed= 0;
0004fb 2488      	CLR  R8
                 ; 0000 03FD               ed_speed= 0;
0004fc 2499      	CLR  R9
                 ; 0000 03FE 
                 ; 0000 03FF              // #asm("cli")
                 ; 0000 0400 
                 ; 0000 0401               flag=1;
0004fd 9468      	SET
0004fe f820      	BLD  R2,0
                 ; 0000 0402    while(flag==1){}
                 _0x99:
0004ff fc20      	SBRC R2,0
000500 cffe      	RJMP _0x99
                 ; 0000 0403               putchar('n');
000501 e6ae      	LDI  R26,LOW(110)
000502 940e 0a0c 	CALL _putchar
                 ; 0000 0404              lcd_gotoxy(0,0);
000504 940e 0a95 	CALL SUBOPT_0x1
                 ; 0000 0405          lcd_puts("                ");
                +
000506 eeae     +LDI R26 , LOW ( _0x5F + ( 127 ) )
000507 e0b1     +LDI R27 , HIGH ( _0x5F + ( 127 ) )
                 	__POINTW2MN _0x5F,127
000508 940e 0b4b 	CALL SUBOPT_0x14
                 ; 0000 0406              lcd_gotoxy(0,0);
                 ; 0000 0407           lcd_puts("  NO SIGNAL");
                +
00050a efaf     +LDI R26 , LOW ( _0x5F + ( 144 ) )
00050b e0b1     +LDI R27 , HIGH ( _0x5F + ( 144 ) )
                 	__POINTW2MN _0x5F,144
00050c c024      	RJMP _0x127
                 ; 0000 0408 
                 ; 0000 0409         //  #asm("sei")
                 ; 0000 040A     // zvuk();
                 ; 0000 040B 
                 ; 0000 040C                  break;
                 ; 0000 040D 
                 ; 0000 040E          case 5:
                 _0x98:
00050d 30e5      	CPI  R30,LOW(0x5)
00050e e0a0      	LDI  R26,HIGH(0x5)
00050f 07fa      	CPC  R31,R26
000510 f511      	BRNE _0x97
                 ; 0000 040F 
                 ; 0000 0410            es_gps =0;
000511 e0e0      	LDI  R30,LOW(0)
000512 93e0 0259 	STS  _es_gps,R30
                 ; 0000 0411            err = 0;
000514 93e0 0254 	STS  _err,R30
000516 93e0 0255 	STS  _err+1,R30
                 ; 0000 0412            st_po=0;
000518 93e0 0253 	STS  _st_po,R30
                 ; 0000 0413 
                 ; 0000 0414               UCSRB|=(1<<RXCIE);
00051a 9a57      	SBI  0xA,7
                 ; 0000 0415 
                 ; 0000 0416           //       #asm("cli")
                 ; 0000 0417 
                 ; 0000 0418                 flag=1;
00051b 9468      	SET
00051c f820      	BLD  R2,0
                 ; 0000 0419    while(flag==1){}
                 _0x9D:
00051d fc20      	SBRC R2,0
00051e cffe      	RJMP _0x9D
                 ; 0000 041A                lcd_gotoxy(0,0);
00051f 940e 0a95 	CALL SUBOPT_0x1
                 ; 0000 041B           lcd_puts("                ");
                +
000521 e0ab     +LDI R26 , LOW ( _0x5F + ( 156 ) )
000522 e0b2     +LDI R27 , HIGH ( _0x5F + ( 156 ) )
                 	__POINTW2MN _0x5F,156
000523 940e 09cc 	CALL _lcd_puts
                 ; 0000 041C           lcd_gotoxy(3,0);
000525 e0e3      	LDI  R30,LOW(3)
000526 940e 0aa1 	CALL SUBOPT_0x3
                 ; 0000 041D 
                 ; 0000 041E         lcd_puts(":");
                +
000528 e1ac     +LDI R26 , LOW ( _0x5F + ( 173 ) )
000529 e0b2     +LDI R27 , HIGH ( _0x5F + ( 173 ) )
                 	__POINTW2MN _0x5F,173
00052a 940e 09cc 	CALL _lcd_puts
                 ; 0000 041F 
                 ; 0000 0420         lcd_gotoxy(10,0);
00052c e0ea      	LDI  R30,LOW(10)
00052d 940e 0aa1 	CALL SUBOPT_0x3
                 ; 0000 0421 
                 ; 0000 0422         lcd_puts("S=");
                +
00052f e1ae     +LDI R26 , LOW ( _0x5F + ( 175 ) )
000530 e0b2     +LDI R27 , HIGH ( _0x5F + ( 175 ) )
                 	__POINTW2MN _0x5F,175
                 _0x127:
000531 940e 09cc 	CALL _lcd_puts
                 ; 0000 0423 
                 ; 0000 0424        //  #asm("sei")
                 ; 0000 0425 
                 ; 0000 0426 
                 ; 0000 0427             break;
                 ; 0000 0428        }
                 _0x97:
                 ; 0000 0429          }
                 ; 0000 042A 
                 ; 0000 042B 
                 ; 0000 042C 
                 ; 0000 042D         adc_on;
                 _0x8F:
000533 9a37      	SBI  0x6,7
                 ; 0000 042E 
                 ; 0000 042F 
                 ; 0000 0430            work=3;
000534 e0e3      	LDI  R30,LOW(3)
000535 93e0 0257 	STS  _work,R30
                 ; 0000 0431 
                 ; 0000 0432 
                 ; 0000 0433             continue;
000537 ce8e      	RJMP _0x67
                 ; 0000 0434 
                 ; 0000 0435 
                 ; 0000 0436   case 3:
                 _0x79:
000538 30e3      	CPI  R30,LOW(0x3)
000539 e0a0      	LDI  R26,HIGH(0x3)
00053a 07fa      	CPC  R31,R26
00053b f009      	BREQ PC+2
00053c c07c      	RJMP _0x72
                 ; 0000 0437 
                 ; 0000 0438    if(st_v<3)
00053d 91a0 0252 	LDS  R26,_st_v
00053f 30a3      	CPI  R26,LOW(0x3)
000540 f430      	BRSH _0xA2
                 ; 0000 0439      {
                 ; 0000 043A       ++st_v;
000541 91e0 0252 	LDS  R30,_st_v
000543 5fef      	SUBI R30,-LOW(1)
000544 93e0 0252 	STS  _st_v,R30
                 ; 0000 043B        goto m3;
000546 c06f      	RJMP _0xA3
                 ; 0000 043C        }
                 ; 0000 043D 
                 ; 0000 043E    adc_dataw+=adc_data;
                 _0xA2:
000547 91e0 026b 	LDS  R30,_adc_data
000549 91f0 026c 	LDS  R31,_adc_data+1
00054b 940e 0b4e 	CALL SUBOPT_0x15
00054d 0fea      	ADD  R30,R26
00054e 1ffb      	ADC  R31,R27
00054f 93e0 0269 	STS  _adc_dataw,R30
000551 93f0 026a 	STS  _adc_dataw+1,R31
                 ; 0000 043F           if( cout_in<8)
000553 91a0 026f 	LDS  R26,_cout_in
000555 30a8      	CPI  R26,LOW(0x8)
000556 f408      	BRSH _0xA4
                 ; 0000 0440                    adc_on;
000557 9a37      	SBI  0x6,7
                 ; 0000 0441             if (++cout_in==8)
                 _0xA4:
000558 91a0 026f 	LDS  R26,_cout_in
00055a 5faf      	SUBI R26,-LOW(1)
00055b 93a0 026f 	STS  _cout_in,R26
00055d 30a8      	CPI  R26,LOW(0x8)
00055e f009      	BREQ PC+2
00055f c056      	RJMP _0xA5
                 ; 0000 0442           {
                 ; 0000 0443 
                 ; 0000 0444            adc_off;
000560 9837      	CBI  0x6,7
                 ; 0000 0445 
                 ; 0000 0446          adc_dataw=adc_dataw>>5;
000561 940e 0b4e 	CALL SUBOPT_0x15
000563 e0e5      	LDI  R30,LOW(5)
000564 940e 0e38 	CALL __LSRW12
000566 93e0 0269 	STS  _adc_dataw,R30
000568 93f0 026a 	STS  _adc_dataw+1,R31
                 ; 0000 0447        // adc_dataw=adc_dataw>>2;
                 ; 0000 0448             cout_in=0;
00056a e0e0      	LDI  R30,LOW(0)
00056b 93e0 026f 	STS  _cout_in,R30
                 ; 0000 0449 
                 ; 0000 044A 
                 ; 0000 044B              ftoa((float)adc_dataw/10,1,lcd_buf);
00056d 940e 0b53 	CALL SUBOPT_0x16
00056f 940e 0ac1 	CALL SUBOPT_0x8
                 ; 0000 044C              flag=1;
                 ; 0000 044D    while(flag==1){}
                 _0xA6:
000571 fc20      	SBRC R2,0
000572 cffe      	RJMP _0xA6
                 ; 0000 044E 
                 ; 0000 044F          lcd_gotoxy(12,1);
000573 940e 0abc 	CALL SUBOPT_0x7
                 ; 0000 0450       lcd_puts(lcd_buf);
000575 940e 0aae 	CALL SUBOPT_0x5
                 ; 0000 0451 
                 ; 0000 0452           if(( adc_dataw <= min_u || adc_dataw >= max_u )&& alarm_u==0)
000577 940e 0b4e 	CALL SUBOPT_0x15
000579 37a4      	CPI  R26,LOW(0x74)
00057a e0e0      	LDI  R30,HIGH(0x74)
00057b 07be      	CPC  R27,R30
00057c f030      	BRLO _0xAA
00057d 940e 0b4e 	CALL SUBOPT_0x15
00057f 39a4      	CPI  R26,LOW(0x94)
000580 e0e0      	LDI  R30,HIGH(0x94)
000581 07be      	CPC  R27,R30
000582 f020      	BRLO _0xAC
                 _0xAA:
000583 91a0 025f 	LDS  R26,_alarm_u
000585 30a0      	CPI  R26,LOW(0x0)
000586 f009      	BREQ _0xAD
                 _0xAC:
000587 c008      	RJMP _0xA9
                 _0xAD:
                 ; 0000 0453 
                 ; 0000 0454           {
                 ; 0000 0455         alarm_u=1;
000588 e0e1      	LDI  R30,LOW(1)
000589 93e0 025f 	STS  _alarm_u,R30
                 ; 0000 0456               adc_datawi=adc_dataw;
00058b 940e 0b58 	CALL SUBOPT_0x17
                 ; 0000 0457                  putchar('b');
00058d e6a2      	LDI  R26,LOW(98)
00058e 940e 0a0c 	CALL _putchar
                 ; 0000 0458 
                 ; 0000 0459                        }
                 ; 0000 045A 
                 ; 0000 045B 
                 ; 0000 045C         if(( adc_dataw > min_u && adc_dataw < max_u )&&  alarm_u==1)
                 _0xA9:
000590 940e 0b4e 	CALL SUBOPT_0x15
000592 37a4      	CPI  R26,LOW(0x74)
000593 e0e0      	LDI  R30,HIGH(0x74)
000594 07be      	CPC  R27,R30
000595 f030      	BRLO _0xAF
000596 940e 0b4e 	CALL SUBOPT_0x15
000598 39a4      	CPI  R26,LOW(0x94)
000599 e0e0      	LDI  R30,HIGH(0x94)
00059a 07be      	CPC  R27,R30
00059b f008      	BRLO _0xB0
                 _0xAF:
00059c c004      	RJMP _0xB1
                 _0xB0:
00059d 91a0 025f 	LDS  R26,_alarm_u
00059f 30a1      	CPI  R26,LOW(0x1)
0005a0 f009      	BREQ _0xB2
                 _0xB1:
0005a1 c00d      	RJMP _0xAE
                 _0xB2:
                 ; 0000 045D 
                 ; 0000 045E                {
                 ; 0000 045F 
                 ; 0000 0460                alarm_u=0;
0005a2 e0e0      	LDI  R30,LOW(0)
0005a3 93e0 025f 	STS  _alarm_u,R30
                 ; 0000 0461 
                 ; 0000 0462                   ftoa((float)adc_dataw/10,1,lcd_buf);
0005a5 940e 0b53 	CALL SUBOPT_0x16
0005a7 940e 0ac1 	CALL SUBOPT_0x8
                 ; 0000 0463 
                 ; 0000 0464           flag=1;
                 ; 0000 0465    while(flag==1){}
                 _0xB3:
0005a9 fc20      	SBRC R2,0
0005aa cffe      	RJMP _0xB3
                 ; 0000 0466          lcd_gotoxy(12,1);
0005ab 940e 0abc 	CALL SUBOPT_0x7
                 ; 0000 0467            lcd_puts(lcd_buf);
0005ad 940e 0aae 	CALL SUBOPT_0x5
                 ; 0000 0468 
                 ; 0000 0469             }
                 ; 0000 046A      /*
                 ; 0000 046B       ++st_po;
                 ; 0000 046C 
                 ; 0000 046D           itoa(st_po,lcd_buf);
                 ; 0000 046E            lcd_gotoxy(12,0);
                 ; 0000 046F 
                 ; 0000 0470                 lcd_puts(lcd_buf);
                 ; 0000 0471          */
                 ; 0000 0472     //   #asm("sei")
                 ; 0000 0473 
                 ; 0000 0474 
                 ; 0000 0475 
                 ; 0000 0476 
                 ; 0000 0477          adc_datawi=adc_dataw;
                 _0xAE:
0005af 940e 0b58 	CALL SUBOPT_0x17
                 ; 0000 0478         adc_dataw=0;
0005b1 e0e0      	LDI  R30,LOW(0)
0005b2 93e0 0269 	STS  _adc_dataw,R30
0005b4 93e0 026a 	STS  _adc_dataw+1,R30
                 ; 0000 0479 
                 ; 0000 047A 
                 ; 0000 047B         }
                 ; 0000 047C 
                 ; 0000 047D 
                 ; 0000 047E 
                 ; 0000 047F      m3:
                 _0xA5:
                 _0xA3:
                 ; 0000 0480        work=0;
                 _0x125:
0005b6 e0e0      	LDI  R30,LOW(0)
0005b7 93e0 0257 	STS  _work,R30
                 ; 0000 0481         break;
                 ; 0000 0482   }
                 _0x72:
                 ; 0000 0483 
                 ; 0000 0484     if( work_gps==0) goto m1;
0005b9 2055      	TST  R5
0005ba f409      	BRNE _0xB6
0005bb ce0a      	RJMP _0x6A
                 ; 0000 0485 
                 ; 0000 0486        //GPS----------------------------------------------------------
                 ; 0000 0487 
                 ; 0000 0488        if ( work_gps==1)
                 _0xB6:
0005bc e0e1      	LDI  R30,LOW(1)
0005bd 15e5      	CP   R30,R5
0005be f471      	BRNE _0xB7
                 ; 0000 0489        {
                 ; 0000 048A   //  #asm("cli")
                 ; 0000 048B 
                 ; 0000 048C        for(i=0; i<rx_wr_index; i++)
0005bf 2444      	CLR  R4
                 _0xB9:
0005c0 91e0 0304 	LDS  R30,_rx_wr_index
0005c2 164e      	CP   R4,R30
0005c3 f448      	BRSH _0xBA
                 ; 0000 048D        {
                 ; 0000 048E        if  (rx_buffer [i]=='$')
0005c4 940e 0b5e 	CALL SUBOPT_0x18
0005c6 32a4      	CPI  R26,LOW(0x24)
0005c7 f419      	BRNE _0xBB
                 ; 0000 048F        {
                 ; 0000 0490        work_gps=2;
0005c8 e0e2      	LDI  R30,LOW(2)
0005c9 2e5e      	MOV  R5,R30
                 ; 0000 0491 
                 ; 0000 0492         break;
0005ca c002      	RJMP _0xBA
                 ; 0000 0493        }
                 ; 0000 0494           }
                 _0xBB:
0005cb 9443      	INC  R4
0005cc cff3      	RJMP _0xB9
                 _0xBA:
                 ; 0000 0495              }
                 ; 0000 0496 
                 ; 0000 0497              if (work_gps==1)
                 _0xB7:
0005cd e0e1      	LDI  R30,LOW(1)
0005ce 15e5      	CP   R30,R5
0005cf f411      	BRNE _0xBC
                 ; 0000 0498              {
                 ; 0000 0499          reset();
0005d0 db9a      	RCALL _reset
                 ; 0000 049A               goto m1;
0005d1 cdf4      	RJMP _0x6A
                 ; 0000 049B 
                 ; 0000 049C                  }
                 ; 0000 049D 
                 ; 0000 049E 
                 ; 0000 049F        //switch(
                 ; 0000 04A0 
                 ; 0000 04A1        if (work_gps==2)
                 _0xBC:
0005d2 e0e2      	LDI  R30,LOW(2)
0005d3 15e5      	CP   R30,R5
0005d4 f009      	BREQ PC+2
0005d5 c040      	RJMP _0xBD
                 ; 0000 04A2        {
                 ; 0000 04A3        if(rx_buffer [i+3]=='R' && rx_buffer [i+4]=='M'
                 ; 0000 04A4        && rx_buffer [i+5]=='C' )
0005d6 940e 0b64 	CALL SUBOPT_0x19
0005d8 35a2      	CPI  R26,LOW(0x52)
0005d9 f441      	BRNE _0xBF
0005da 940e 0b6a 	CALL SUBOPT_0x1A
0005dc 34ad      	CPI  R26,LOW(0x4D)
0005dd f421      	BRNE _0xBF
0005de 940e 0b70 	CALL SUBOPT_0x1B
0005e0 34a3      	CPI  R26,LOW(0x43)
0005e1 f009      	BREQ _0xC0
                 _0xBF:
0005e2 c002      	RJMP _0xBE
                 _0xC0:
                 ; 0000 04A5 
                 ; 0000 04A6        work_gps=3;
0005e3 e0e3      	LDI  R30,LOW(3)
0005e4 2e5e      	MOV  R5,R30
                 ; 0000 04A7 
                 ; 0000 04A8 
                 ; 0000 04A9 
                 ; 0000 04AA         if((rx_buffer [i+3]=='V') && (rx_buffer [i+4]=='T')
                 _0xBE:
                 ; 0000 04AB        && (rx_buffer [i+5]=='G'))
0005e5 940e 0b64 	CALL SUBOPT_0x19
0005e7 35a6      	CPI  R26,LOW(0x56)
0005e8 f441      	BRNE _0xC2
0005e9 940e 0b6a 	CALL SUBOPT_0x1A
0005eb 35a4      	CPI  R26,LOW(0x54)
0005ec f421      	BRNE _0xC2
0005ed 940e 0b70 	CALL SUBOPT_0x1B
0005ef 34a7      	CPI  R26,LOW(0x47)
0005f0 f009      	BREQ _0xC3
                 _0xC2:
0005f1 c002      	RJMP _0xC1
                 _0xC3:
                 ; 0000 04AC 
                 ; 0000 04AD        work_gps=5;
0005f2 e0e5      	LDI  R30,LOW(5)
0005f3 2e5e      	MOV  R5,R30
                 ; 0000 04AE 
                 ; 0000 04AF 
                 ; 0000 04B0 
                 ; 0000 04B1 
                 ; 0000 04B2 
                 ; 0000 04B3         if(rx_buffer [i+3]=='G' && rx_buffer [i+4]=='S'
                 _0xC1:
                 ; 0000 04B4        && rx_buffer [i+5]=='V')// && es_gps == 0)
0005f4 940e 0b64 	CALL SUBOPT_0x19
0005f6 34a7      	CPI  R26,LOW(0x47)
0005f7 f441      	BRNE _0xC5
0005f8 940e 0b6a 	CALL SUBOPT_0x1A
0005fa 35a3      	CPI  R26,LOW(0x53)
0005fb f421      	BRNE _0xC5
0005fc 940e 0b70 	CALL SUBOPT_0x1B
0005fe 35a6      	CPI  R26,LOW(0x56)
0005ff f009      	BREQ _0xC6
                 _0xC5:
000600 c002      	RJMP _0xC4
                 _0xC6:
                 ; 0000 04B5 
                 ; 0000 04B6          work_gps=10;
000601 e0ea      	LDI  R30,LOW(10)
000602 2e5e      	MOV  R5,R30
                 ; 0000 04B7 
                 ; 0000 04B8 
                 ; 0000 04B9 
                 ; 0000 04BA          if(rx_buffer [i+3]=='G' && rx_buffer [i+4]=='G'
                 _0xC4:
                 ; 0000 04BB        && rx_buffer [i+5]=='A' && st_po == 4)
000603 940e 0b64 	CALL SUBOPT_0x19
000605 34a7      	CPI  R26,LOW(0x47)
000606 f461      	BRNE _0xC8
000607 940e 0b6a 	CALL SUBOPT_0x1A
000609 34a7      	CPI  R26,LOW(0x47)
00060a f441      	BRNE _0xC8
00060b 940e 0b70 	CALL SUBOPT_0x1B
00060d 34a1      	CPI  R26,LOW(0x41)
00060e f421      	BRNE _0xC8
00060f 91a0 0253 	LDS  R26,_st_po
000611 30a4      	CPI  R26,LOW(0x4)
000612 f009      	BREQ _0xC9
                 _0xC8:
000613 c002      	RJMP _0xC7
                 _0xC9:
                 ; 0000 04BC 
                 ; 0000 04BD         work_gps=9;
000614 e0e9      	LDI  R30,LOW(9)
000615 2e5e      	MOV  R5,R30
                 ; 0000 04BE 
                 ; 0000 04BF 
                 ; 0000 04C0 
                 ; 0000 04C1       }
                 _0xC7:
                 ; 0000 04C2 
                 ; 0000 04C3 
                 ; 0000 04C4          if (work_gps==2)
                 _0xBD:
000616 e0e2      	LDI  R30,LOW(2)
000617 15e5      	CP   R30,R5
000618 f411      	BRNE _0xCA
                 ; 0000 04C5             {
                 ; 0000 04C6          reset();
000619 db51      	RCALL _reset
                 ; 0000 04C7               goto m1;
00061a cdab      	RJMP _0x6A
                 ; 0000 04C8 
                 ; 0000 04C9                  }
                 ; 0000 04CA 
                 ; 0000 04CB 
                 ; 0000 04CC 
                 ; 0000 04CD 
                 ; 0000 04CE 
                 ; 0000 04CF 
                 ; 0000 04D0 
                 ; 0000 04D1 
                 ; 0000 04D2      /*
                 ; 0000 04D3         {
                 ; 0000 04D4 
                 ; 0000 04D5        for(i=0; i<rx_wr_index; i++)
                 ; 0000 04D6 
                 ; 0000 04D7      {
                 ; 0000 04D8        if(rx_buffer [i]==',')
                 ; 0000 04D9 
                 ; 0000 04DA      {
                 ; 0000 04DB      work_gps=4;break;
                 ; 0000 04DC 
                 ; 0000 04DD      }
                 ; 0000 04DE        }
                 ; 0000 04DF       }   */
                 ; 0000 04E0 
                 ; 0000 04E1 
                 ; 0000 04E2 
                 ; 0000 04E3 
                 ; 0000 04E4           if (work_gps==3 && es_gps == 3 )
                 _0xCA:
00061b e0e3      	LDI  R30,LOW(3)
00061c 15e5      	CP   R30,R5
00061d f421      	BRNE _0xCC
00061e 91a0 0259 	LDS  R26,_es_gps
000620 30a3      	CPI  R26,LOW(0x3)
000621 f009      	BREQ _0xCD
                 _0xCC:
000622 c078      	RJMP _0xCB
                 _0xCD:
                 ; 0000 04E5           {
                 ; 0000 04E6                for(i=0; i<rx_wr_index; i++)
000623 2444      	CLR  R4
                 _0xCF:
000624 91e0 0304 	LDS  R30,_rx_wr_index
000626 164e      	CP   R4,R30
000627 f448      	BRSH _0xD0
                 ; 0000 04E7 
                 ; 0000 04E8      {
                 ; 0000 04E9        if(rx_buffer [i]=='A')
000628 940e 0b5e 	CALL SUBOPT_0x18
00062a 34a1      	CPI  R26,LOW(0x41)
00062b f419      	BRNE _0xD1
                 ; 0000 04EA 
                 ; 0000 04EB      {
                 ; 0000 04EC      work_gps=4;break;
00062c e0e4      	LDI  R30,LOW(4)
00062d 2e5e      	MOV  R5,R30
00062e c002      	RJMP _0xD0
                 ; 0000 04ED 
                 ; 0000 04EE      }
                 ; 0000 04EF        }
                 _0xD1:
00062f 9443      	INC  R4
000630 cff3      	RJMP _0xCF
                 _0xD0:
                 ; 0000 04F0 
                 ; 0000 04F1          if( work_gps==4)
000631 e0e4      	LDI  R30,LOW(4)
000632 15e5      	CP   R30,R5
000633 f009      	BREQ PC+2
000634 c066      	RJMP _0xD2
                 ; 0000 04F2          {
                 ; 0000 04F3           for(i=0; i<rx_wr_index; i++)
000635 2444      	CLR  R4
                 _0xD4:
000636 91e0 0304 	LDS  R30,_rx_wr_index
000638 164e      	CP   R4,R30
000639 f430      	BRSH _0xD5
                 ; 0000 04F4 
                 ; 0000 04F5      {
                 ; 0000 04F6        if(rx_buffer [i]==',') break;
00063a 940e 0b5e 	CALL SUBOPT_0x18
00063c 32ac      	CPI  R26,LOW(0x2C)
00063d f011      	BREQ _0xD5
                 ; 0000 04F7 
                 ; 0000 04F8           }
00063e 9443      	INC  R4
00063f cff6      	RJMP _0xD4
                 _0xD5:
                 ; 0000 04F9 
                 ; 0000 04FA 
                 ; 0000 04FB 
                 ; 0000 04FC 
                 ; 0000 04FD            sum_hours=((rx_buffer [i+1])-48)*10+(rx_buffer [i+2]-48);
000640 2de4      	MOV  R30,R4
000641 e0f0      	LDI  R31,0
                +
000642 55ef     +SUBI R30 , LOW ( - _rx_buffer - ( 1 ) )
000643 4ffd     +SBCI R31 , HIGH ( - _rx_buffer - ( 1 ) )
                 	__ADDW1MN _rx_buffer,1
000644 940e 0b76 	CALL SUBOPT_0x1C
                +
000646 55ee     +SUBI R30 , LOW ( - _rx_buffer - ( 2 ) )
000647 4ffd     +SBCI R31 , HIGH ( - _rx_buffer - ( 2 ) )
                 	__ADDW1MN _rx_buffer,2
000648 81e0      	LD   R30,Z
000649 53e0      	SUBI R30,LOW(48)
00064a 0fea      	ADD  R30,R26
00064b 2eae      	MOV  R10,R30
                 ; 0000 04FE 
                 ; 0000 04FF            if  (sum_hours<21)
00064c e1e5      	LDI  R30,LOW(21)
00064d 16ae      	CP   R10,R30
00064e f418      	BRSH _0xD7
                 ; 0000 0500 
                 ; 0000 0501             sum_hours=sum_hours+3;
00064f e0e3      	LDI  R30,LOW(3)
000650 0eae      	ADD  R10,R30
                 ; 0000 0502 
                 ; 0000 0503 
                 ; 0000 0504                else
000651 c014      	RJMP _0xD8
                 _0xD7:
                 ; 0000 0505         {
                 ; 0000 0506 
                 ; 0000 0507            switch (sum_hours)
000652 2dea      	MOV  R30,R10
000653 e0f0      	LDI  R31,0
                 ; 0000 0508             {
                 ; 0000 0509             case 21: sum_hours=0; break;
000654 31e5      	CPI  R30,LOW(0x15)
000655 e0a0      	LDI  R26,HIGH(0x15)
000656 07fa      	CPC  R31,R26
000657 f411      	BRNE _0xDC
000658 24aa      	CLR  R10
000659 c00c      	RJMP _0xDB
                 ; 0000 050A              case 22: sum_hours=1; break;
                 _0xDC:
00065a 31e6      	CPI  R30,LOW(0x16)
00065b e0a0      	LDI  R26,HIGH(0x16)
00065c 07fa      	CPC  R31,R26
00065d f411      	BRNE _0xDD
00065e e0e1      	LDI  R30,LOW(1)
00065f c005      	RJMP _0x128
                 ; 0000 050B               case 23: sum_hours=2; break;
                 _0xDD:
000660 31e7      	CPI  R30,LOW(0x17)
000661 e0a0      	LDI  R26,HIGH(0x17)
000662 07fa      	CPC  R31,R26
000663 f411      	BRNE _0xDB
000664 e0e2      	LDI  R30,LOW(2)
                 _0x128:
000665 2eae      	MOV  R10,R30
                 ; 0000 050C 
                 ; 0000 050D 
                 ; 0000 050E               }
                 _0xDB:
                 ; 0000 050F            }
                 _0xD8:
                 ; 0000 0510 
                 ; 0000 0511 
                 ; 0000 0512             //  decet_Hours_clock=sum_hours/10;
                 ; 0000 0513 
                 ; 0000 0514             //  ed_hours_clock=sum_hours%10;
                 ; 0000 0515 
                 ; 0000 0516 
                 ; 0000 0517           decet_min_clock=(rx_buffer [i+3]-48)*10 + rx_buffer [i+4]-48 ;
000666 2de4      	MOV  R30,R4
000667 e0f0      	LDI  R31,0
                +
000668 55ed     +SUBI R30 , LOW ( - _rx_buffer - ( 3 ) )
000669 4ffd     +SBCI R31 , HIGH ( - _rx_buffer - ( 3 ) )
                 	__ADDW1MN _rx_buffer,3
00066a 940e 0b76 	CALL SUBOPT_0x1C
                +
00066c 55ec     +SUBI R30 , LOW ( - _rx_buffer - ( 4 ) )
00066d 4ffd     +SBCI R31 , HIGH ( - _rx_buffer - ( 4 ) )
                 	__ADDW1MN _rx_buffer,4
00066e 81e0      	LD   R30,Z
00066f 0fae      	ADD  R26,R30
000670 53a0      	SUBI R26,LOW(48)
000671 93a0 024b 	STS  _decet_min_clock,R26
                 ; 0000 0518 
                 ; 0000 0519          // ed_min_clock=rx_buffer [i+4]-48;
                 ; 0000 051A 
                 ; 0000 051B 
                 ; 0000 051C 
                 ; 0000 051D            decet_sek_clock=(rx_buffer [i+5]-48)*10 + rx_buffer [i+6]-48;
000673 2de4      	MOV  R30,R4
000674 e0f0      	LDI  R31,0
                +
000675 55eb     +SUBI R30 , LOW ( - _rx_buffer - ( 5 ) )
000676 4ffd     +SBCI R31 , HIGH ( - _rx_buffer - ( 5 ) )
                 	__ADDW1MN _rx_buffer,5
000677 940e 0b76 	CALL SUBOPT_0x1C
                +
000679 55ea     +SUBI R30 , LOW ( - _rx_buffer - ( 6 ) )
00067a 4ffd     +SBCI R31 , HIGH ( - _rx_buffer - ( 6 ) )
                 	__ADDW1MN _rx_buffer,6
00067b 81e0      	LD   R30,Z
00067c 0fae      	ADD  R26,R30
00067d 53a0      	SUBI R26,LOW(48)
00067e 93a0 025e 	STS  _decet_sek_clock,R26
                 ; 0000 051E 
                 ; 0000 051F 
                 ; 0000 0520              rtc_set_time(sum_hours,decet_min_clock,decet_sek_clock);
000680 92aa      	ST   -Y,R10
000681 91e0 024b 	LDS  R30,_decet_min_clock
000683 93ea      	ST   -Y,R30
000684 940e 0942 	CALL _rtc_set_time
                 ; 0000 0521 
                 ; 0000 0522 
                 ; 0000 0523                    ++es_gps;
000686 91e0 0259 	LDS  R30,_es_gps
000688 5fef      	SUBI R30,-LOW(1)
000689 93e0 0259 	STS  _es_gps,R30
                 ; 0000 0524                     st_s=10;
00068b e0ea      	LDI  R30,LOW(10)
00068c 93e0 0266 	STS  _st_s,R30
                 ; 0000 0525                   // rtc_get_time(&h,&m,&s);
                 ; 0000 0526 
                 ; 0000 0527                //    time();
                 ; 0000 0528              flag=1;
00068e 9468      	SET
00068f f820      	BLD  R2,0
                 ; 0000 0529    while(flag==1){}
                 _0xDF:
000690 fc20      	SBRC R2,0
000691 cffe      	RJMP _0xDF
                 ; 0000 052A 
                 ; 0000 052B                    lcd_gotoxy(15,0);
000692 e0ef      	LDI  R30,LOW(15)
000693 940e 0aa1 	CALL SUBOPT_0x3
                 ; 0000 052C 
                 ; 0000 052D                       lcd_puts("#");
                +
000695 e2a1     +LDI R26 , LOW ( _0x5F + ( 178 ) )
000696 e0b2     +LDI R27 , HIGH ( _0x5F + ( 178 ) )
                 	__POINTW2MN _0x5F,178
000697 940e 09cc 	CALL _lcd_puts
                 ; 0000 052E 
                 ; 0000 052F 
                 ; 0000 0530 
                 ; 0000 0531 
                 ; 0000 0532 
                 ; 0000 0533          reset();
000699 dad1      	RCALL _reset
                 ; 0000 0534               goto m1;
00069a cd2b      	RJMP _0x6A
                 ; 0000 0535 
                 ; 0000 0536 
                 ; 0000 0537 
                 ; 0000 0538 
                 ; 0000 0539 
                 ; 0000 053A                  }
                 ; 0000 053B             }
                 _0xD2:
                 ; 0000 053C 
                 ; 0000 053D           if( work_gps==3)
                 _0xCB:
00069b e0e3      	LDI  R30,LOW(3)
00069c 15e5      	CP   R30,R5
00069d f411      	BRNE _0xE2
                 ; 0000 053E             {
                 ; 0000 053F          reset();
00069e dacc      	RCALL _reset
                 ; 0000 0540               goto m1;
00069f cd26      	RJMP _0x6A
                 ; 0000 0541 
                 ; 0000 0542                  }
                 ; 0000 0543 
                 ; 0000 0544 
                 ; 0000 0545          if (work_gps==5)
                 _0xE2:
0006a0 e0e5      	LDI  R30,LOW(5)
0006a1 15e5      	CP   R30,R5
0006a2 f009      	BREQ PC+2
0006a3 c04a      	RJMP _0xE3
                 ; 0000 0546 
                 ; 0000 0547           {
                 ; 0000 0548 
                 ; 0000 0549 
                 ; 0000 054A 
                 ; 0000 054B              for(i=0; i<rx_wr_index; i++)
0006a4 2444      	CLR  R4
                 _0xE5:
0006a5 91e0 0304 	LDS  R30,_rx_wr_index
0006a7 164e      	CP   R4,R30
0006a8 f008      	BRLO PC+2
0006a9 c044      	RJMP _0xE6
                 ; 0000 054C 
                 ; 0000 054D             {
                 ; 0000 054E 
                 ; 0000 054F             if ( (rx_buffer [i]=='N')&&(rx_buffer [i+1]==','))
0006aa 940e 0b5e 	CALL SUBOPT_0x18
0006ac 34ae      	CPI  R26,LOW(0x4E)
0006ad f421      	BRNE _0xE8
0006ae 940e 0a8f 	CALL SUBOPT_0x0
0006b0 32ac      	CPI  R26,LOW(0x2C)
0006b1 f009      	BREQ _0xE9
                 _0xE8:
0006b2 c039      	RJMP _0xE7
                 _0xE9:
                 ; 0000 0550            {
                 ; 0000 0551 
                 ; 0000 0552            err=0; work_gps=6;
0006b3 e0e0      	LDI  R30,LOW(0)
0006b4 93e0 0254 	STS  _err,R30
0006b6 93e0 0255 	STS  _err+1,R30
0006b8 e0e6      	LDI  R30,LOW(6)
0006b9 2e5e      	MOV  R5,R30
                 ; 0000 0553 
                 ; 0000 0554            if(es_gps==0)
0006ba 91e0 0259 	LDS  R30,_es_gps
0006bc 30e0      	CPI  R30,0
0006bd f569      	BRNE _0xEA
                 ; 0000 0555                {
                 ; 0000 0556                 es_gps =3;
0006be e0e3      	LDI  R30,LOW(3)
0006bf 93e0 0259 	STS  _es_gps,R30
                 ; 0000 0557               itoa(tm,lcd_buf);
0006c1 940e 0aa5 	CALL SUBOPT_0x4
                 ; 0000 0558              flag=1;
0006c3 9468      	SET
0006c4 f820      	BLD  R2,0
                 ; 0000 0559    while(flag==1){}
                 _0xEB:
0006c5 fc20      	SBRC R2,0
0006c6 cffe      	RJMP _0xEB
                 ; 0000 055A 
                 ; 0000 055B            lcd_gotoxy(0,0);
0006c7 940e 0a95 	CALL SUBOPT_0x1
                 ; 0000 055C 
                 ; 0000 055D 
                 ; 0000 055E          lcd_puts("                ");
                +
0006c9 e2a3     +LDI R26 , LOW ( _0x5F + ( 180 ) )
0006ca e0b2     +LDI R27 , HIGH ( _0x5F + ( 180 ) )
                 	__POINTW2MN _0x5F,180
0006cb 940e 0b4b 	CALL SUBOPT_0x14
                 ; 0000 055F             lcd_gotoxy(0,0);
                 ; 0000 0560           lcd_puts("GPS_Ok ");
                +
0006cd e3a4     +LDI R26 , LOW ( _0x5F + ( 197 ) )
0006ce e0b2     +LDI R27 , HIGH ( _0x5F + ( 197 ) )
                 	__POINTW2MN _0x5F,197
0006cf 940e 09cc 	CALL _lcd_puts
                 ; 0000 0561 
                 ; 0000 0562                   lcd_puts(lcd_buf);
0006d1 940e 0aae 	CALL SUBOPT_0x5
                 ; 0000 0563            lcd_puts(":");
                +
0006d3 e3ac     +LDI R26 , LOW ( _0x5F + ( 205 ) )
0006d4 e0b2     +LDI R27 , HIGH ( _0x5F + ( 205 ) )
                 	__POINTW2MN _0x5F,205
0006d5 940e 09cc 	CALL _lcd_puts
                 ; 0000 0564             if(ts<10)
0006d7 91a0 0264 	LDS  R26,_ts
0006d9 30aa      	CPI  R26,LOW(0xA)
0006da f420      	BRSH _0xEE
                 ; 0000 0565            lcd_puts("0");
                +
0006db e3ae     +LDI R26 , LOW ( _0x5F + ( 207 ) )
0006dc e0b2     +LDI R27 , HIGH ( _0x5F + ( 207 ) )
                 	__POINTW2MN _0x5F,207
0006dd 940e 09cc 	CALL _lcd_puts
                 ; 0000 0566 
                 ; 0000 0567             itoa(ts,lcd_buf);
                 _0xEE:
0006df 940e 0ab2 	CALL SUBOPT_0x6
                 ; 0000 0568                  lcd_puts(lcd_buf);
                 ; 0000 0569 
                 ; 0000 056A                   putchar('s');
0006e1 e7a3      	LDI  R26,LOW(115)
0006e2 940e 0a0c 	CALL _putchar
                 ; 0000 056B 
                 ; 0000 056C                 ts=0;
0006e4 e0e0      	LDI  R30,LOW(0)
0006e5 93e0 0264 	STS  _ts,R30
                 ; 0000 056D                 tm=0;
0006e7 93e0 0265 	STS  _tm,R30
                 ; 0000 056E                 kvadrat = 0;
0006e9 93e0 025d 	STS  _kvadrat,R30
                 ; 0000 056F 
                 ; 0000 0570                      }
                 ; 0000 0571 
                 ; 0000 0572            break;
                 _0xEA:
0006eb c002      	RJMP _0xE6
                 ; 0000 0573          }
                 ; 0000 0574 
                 ; 0000 0575 
                 ; 0000 0576 
                 ; 0000 0577 
                 ; 0000 0578        }
                 _0xE7:
0006ec 9443      	INC  R4
0006ed cfb7      	RJMP _0xE5
                 _0xE6:
                 ; 0000 0579 
                 ; 0000 057A            }
                 ; 0000 057B 
                 ; 0000 057C          if (work_gps==5)
                 _0xE3:
0006ee e0e5      	LDI  R30,LOW(5)
0006ef 15e5      	CP   R30,R5
0006f0 f411      	BRNE _0xEF
                 ; 0000 057D           {
                 ; 0000 057E          reset();
0006f1 da79      	RCALL _reset
                 ; 0000 057F               goto m1;
0006f2 ccd3      	RJMP _0x6A
                 ; 0000 0580 
                 ; 0000 0581                  }
                 ; 0000 0582 
                 ; 0000 0583 
                 ; 0000 0584 
                 ; 0000 0585 
                 ; 0000 0586              if (work_gps==6)
                 _0xEF:
0006f3 e0e6      	LDI  R30,LOW(6)
0006f4 15e5      	CP   R30,R5
0006f5 f009      	BREQ PC+2
0006f6 c070      	RJMP _0xF0
                 ; 0000 0587           {
                 ; 0000 0588 
                 ; 0000 0589 
                 ; 0000 058A 
                 ; 0000 058B 
                 ; 0000 058C 
                 ; 0000 058D                 sum_hours=255;
0006f7 efef      	LDI  R30,LOW(255)
0006f8 2eae      	MOV  R10,R30
                 ; 0000 058E 
                 ; 0000 058F 
                 ; 0000 0590 
                 ; 0000 0591               for(i= i+2; i<rx_wr_index ; i++)
0006f9 9443      	INC  R4
0006fa 9443      	INC  R4
                 _0xF2:
0006fb 91e0 0304 	LDS  R30,_rx_wr_index
0006fd 164e      	CP   R4,R30
0006fe f498      	BRSH _0xF3
                 ; 0000 0592               {
                 ; 0000 0593                 sum_hours++;
0006ff 94a3      	INC  R10
                 ; 0000 0594                if(rx_buffer [i]!=',')
000700 940e 0b5e 	CALL SUBOPT_0x18
000702 32ac      	CPI  R26,LOW(0x2C)
000703 f059      	BREQ _0xF4
                 ; 0000 0595                {
                 ; 0000 0596 
                 ; 0000 0597              speed_array[sum_hours]= rx_buffer [i];
000704 2daa      	MOV  R26,R10
000705 e0b0      	LDI  R27,0
000706 57a4      	SUBI R26,LOW(-_speed_array)
000707 4fbd      	SBCI R27,HIGH(-_speed_array)
000708 2de4      	MOV  R30,R4
000709 e0f0      	LDI  R31,0
00070a 56e0      	SUBI R30,LOW(-_rx_buffer)
00070b 4ffd      	SBCI R31,HIGH(-_rx_buffer)
00070c 81e0      	LD   R30,Z
00070d 93ec      	ST   X,R30
                 ; 0000 0598 
                 ; 0000 0599 
                 ; 0000 059A 
                 ; 0000 059B              }
                 ; 0000 059C                  else
00070e c001      	RJMP _0xF5
                 _0xF4:
                 ; 0000 059D                  break;
00070f c002      	RJMP _0xF3
                 ; 0000 059E 
                 ; 0000 059F 
                 ; 0000 05A0              }
                 _0xF5:
000710 9443      	INC  R4
000711 cfe9      	RJMP _0xF2
                 _0xF3:
                 ; 0000 05A1 
                 ; 0000 05A2 
                 ; 0000 05A3 
                 ; 0000 05A4             for(r=0; r<sum_hours; r++)
000712 e0e0      	LDI  R30,LOW(0)
000713 93e0 0267 	STS  _r,R30
                 _0xF7:
000715 91a0 0267 	LDS  R26,_r
000717 15aa      	CP   R26,R10
000718 f470      	BRSH _0xF8
                 ; 0000 05A5 
                 ; 0000 05A6              if( speed_array[r]=='.')
000719 91e0 0267 	LDS  R30,_r
00071b e0f0      	LDI  R31,0
00071c 57e4      	SUBI R30,LOW(-_speed_array)
00071d 4ffd      	SBCI R31,HIGH(-_speed_array)
00071e 81a0      	LD   R26,Z
00071f 32ae      	CPI  R26,LOW(0x2E)
000720 f031      	BREQ _0xF8
                 ; 0000 05A7               {
                 ; 0000 05A8 
                 ; 0000 05A9           //   soten_speed =5;                         //     unsigned char ed_speed;
                 ; 0000 05AA               break;
                 ; 0000 05AB                }
                 ; 0000 05AC             //    i=2;                                             //   unsigned char deset_speed;
                 ; 0000 05AD                                                              // unsigned char soten_speed;
                 ; 0000 05AE             switch (r)
000721 91e0 0267 	LDS  R30,_r
000723 5fef      	SUBI R30,-LOW(1)
000724 93e0 0267 	STS  _r,R30
000726 cfee      	RJMP _0xF7
                 _0xF8:
000727 91e0 0267 	LDS  R30,_r
000729 940e 0ad8 	CALL SUBOPT_0x9
                 ; 0000 05AF             {
                 ; 0000 05B0              case 1: ed_speed = speed_array[0]-48;
00072b f439      	BRNE _0xFD
00072c 91e0 028c 	LDS  R30,_speed_array
00072e 53e0      	SUBI R30,LOW(48)
00072f 2e9e      	MOV  R9,R30
                 ; 0000 05B1 
                 ; 0000 05B2               soten_speed = deset_speed = 0;
000730 e0e0      	LDI  R30,LOW(0)
000731 2e8e      	MOV  R8,R30
000732 c01d      	RJMP _0x129
                 ; 0000 05B3                   break;
                 ; 0000 05B4 
                 ; 0000 05B5               case 2: ed_speed = speed_array[1]-48;
                 _0xFD:
000733 30e2      	CPI  R30,LOW(0x2)
000734 e0a0      	LDI  R26,HIGH(0x2)
000735 07fa      	CPC  R31,R26
000736 f451      	BRNE _0xFE
                +
000737 91e0 028d+LDS R30 , _speed_array + ( 1 )
                 	__GETB1MN _speed_array,1
000739 53e0      	SUBI R30,LOW(48)
00073a 2e9e      	MOV  R9,R30
                 ; 0000 05B6                    deset_speed = speed_array[0]-48;
00073b 91e0 028c 	LDS  R30,_speed_array
00073d 53e0      	SUBI R30,LOW(48)
00073e 2e8e      	MOV  R8,R30
                 ; 0000 05B7 
                 ; 0000 05B8               soten_speed =  0;
00073f 24bb      	CLR  R11
                 ; 0000 05B9                   break;
000740 c010      	RJMP _0xFC
                 ; 0000 05BA 
                 ; 0000 05BB               case 3: ed_speed = speed_array[2]-48;
                 _0xFE:
000741 30e3      	CPI  R30,LOW(0x3)
000742 e0a0      	LDI  R26,HIGH(0x3)
000743 07fa      	CPC  R31,R26
000744 f461      	BRNE _0xFC
                +
000745 91e0 028e+LDS R30 , _speed_array + ( 2 )
                 	__GETB1MN _speed_array,2
000747 53e0      	SUBI R30,LOW(48)
000748 2e9e      	MOV  R9,R30
                 ; 0000 05BC                    deset_speed = speed_array[1]-48;
                +
000749 91e0 028d+LDS R30 , _speed_array + ( 1 )
                 	__GETB1MN _speed_array,1
00074b 53e0      	SUBI R30,LOW(48)
00074c 2e8e      	MOV  R8,R30
                 ; 0000 05BD 
                 ; 0000 05BE               soten_speed = speed_array[0]-48;
00074d 91e0 028c 	LDS  R30,_speed_array
00074f 53e0      	SUBI R30,LOW(48)
                 _0x129:
000750 2ebe      	MOV  R11,R30
                 ; 0000 05BF                   break;
                 ; 0000 05C0 
                 ; 0000 05C1              }
                 _0xFC:
                 ; 0000 05C2 
                 ; 0000 05C3               for(r=0; r<10; r++)
000751 e0e0      	LDI  R30,LOW(0)
000752 93e0 0267 	STS  _r,R30
                 _0x101:
000754 91a0 0267 	LDS  R26,_r
000756 30aa      	CPI  R26,LOW(0xA)
000757 f468      	BRSH _0x102
                 ; 0000 05C4                speed_array[r]=0;
000758 91e0 0267 	LDS  R30,_r
00075a e0f0      	LDI  R31,0
00075b 57e4      	SUBI R30,LOW(-_speed_array)
00075c 4ffd      	SBCI R31,HIGH(-_speed_array)
00075d e0a0      	LDI  R26,LOW(0)
00075e 83a0      	STD  Z+0,R26
00075f 91e0 0267 	LDS  R30,_r
000761 5fef      	SUBI R30,-LOW(1)
000762 93e0 0267 	STS  _r,R30
000764 cfef      	RJMP _0x101
                 _0x102:
                 ; 0000 05E5 reset();
000765 da05      	RCALL _reset
                 ; 0000 05E6               goto m1;
000766 cc5f      	RJMP _0x6A
                 ; 0000 05E7 
                 ; 0000 05E8 
                 ; 0000 05E9 
                 ; 0000 05EA 
                 ; 0000 05EB        }
                 ; 0000 05EC 
                 ; 0000 05ED 
                 ; 0000 05EE 
                 ; 0000 05EF 
                 ; 0000 05F0 
                 ; 0000 05F1 
                 ; 0000 05F2 
                 ; 0000 05F3 
                 ; 0000 05F4 
                 ; 0000 05F5 
                 ; 0000 05F6           if( work_gps==9 )
                 _0xF0:
000767 e0e9      	LDI  R30,LOW(9)
000768 15e5      	CP   R30,R5
000769 f009      	BREQ PC+2
00076a c074      	RJMP _0x103
                 ; 0000 05F7           {
                 ; 0000 05F8 
                 ; 0000 05F9              sum_hours=0;
00076b 24aa      	CLR  R10
                 ; 0000 05FA         //  ed_sek_clock=rx_buffer [i+6]-48;
                 ; 0000 05FB 
                 ; 0000 05FC             for(i=0; i<rx_wr_index; i++)
00076c 2444      	CLR  R4
                 _0x105:
00076d 91e0 0304 	LDS  R30,_rx_wr_index
00076f 164e      	CP   R4,R30
000770 f498      	BRSH _0x106
                 ; 0000 05FD        {
                 ; 0000 05FE        if  (rx_buffer [i]==',')
000771 940e 0b5e 	CALL SUBOPT_0x18
000773 32ac      	CPI  R26,LOW(0x2C)
000774 f469      	BRNE _0x107
                 ; 0000 05FF        {
                 ; 0000 0600        if(++sum_hours==7)
000775 94a3      	INC  R10
000776 e0e7      	LDI  R30,LOW(7)
000777 15ea      	CP   R30,R10
000778 f449      	BRNE _0x108
                 ; 0000 0601        {
                 ; 0000 0602                       //n sputnik
                 ; 0000 0603 
                 ; 0000 0604         //  decet_sek_clock=(rx_buffer [i+1]-48)*10 + rx_buffer [i+2]-48;
                 ; 0000 0605 
                 ; 0000 0606 
                 ; 0000 0607        //   ed_sek_clock=
                 ; 0000 0608     //   itoa(decet_sek_clock ,lcd_buf);
                 ; 0000 0609          flag=1;
000779 9468      	SET
00077a f820      	BLD  R2,0
                 ; 0000 060A        while(flag==1){}
                 _0x109:
00077b fc20      	SBRC R2,0
00077c cffe      	RJMP _0x109
                 ; 0000 060B           lcd_gotoxy(2,0);
00077d e0e2      	LDI  R30,LOW(2)
00077e 940e 0aa1 	CALL SUBOPT_0x3
                 ; 0000 060C 
                 ; 0000 060D           lcd_d ();
000780 d9f9      	RCALL _lcd_d
                 ; 0000 060E 
                 ; 0000 060F          //  #asm("sei")
                 ; 0000 0610 
                 ; 0000 0611            break;
000781 c002      	RJMP _0x106
                 ; 0000 0612 
                 ; 0000 0613             }
                 ; 0000 0614             }
                 _0x108:
                 ; 0000 0615            }
                 _0x107:
000782 9443      	INC  R4
000783 cfe9      	RJMP _0x105
                 _0x106:
                 ; 0000 0616 
                 ; 0000 0617 
                 ; 0000 0618         sum_hours=0;
000784 24aa      	CLR  R10
                 ; 0000 0619         //  ed_sek_clock=rx_buffer [i+6]-48;
                 ; 0000 061A 
                 ; 0000 061B             for(i=0; i<rx_wr_index; i++)
000785 2444      	CLR  R4
                 _0x10D:
000786 91e0 0304 	LDS  R30,_rx_wr_index
000788 164e      	CP   R4,R30
000789 f008      	BRLO PC+2
00078a c052      	RJMP _0x10E
                 ; 0000 061C        {
                 ; 0000 061D        if(rx_buffer [i]==',')
00078b 940e 0b5e 	CALL SUBOPT_0x18
00078d 32ac      	CPI  R26,LOW(0x2C)
00078e f009      	BREQ PC+2
00078f c04b      	RJMP _0x10F
                 ; 0000 061E        {
                 ; 0000 061F        if(++sum_hours==9)
000790 94a3      	INC  R10
000791 e0e9      	LDI  R30,LOW(9)
000792 15ea      	CP   R30,R10
000793 f009      	BREQ PC+2
000794 c046      	RJMP _0x110
                 ; 0000 0620        {
                 ; 0000 0621                       //METR
                 ; 0000 0622 
                 ; 0000 0623           metr=((rx_buffer [i+1]-48)*100) + ((rx_buffer [i+2]-48)*10)
                 ; 0000 0624 
                 ; 0000 0625           +( rx_buffer [i+3]-48);
000795 2de4      	MOV  R30,R4
000796 e0f0      	LDI  R31,0
                +
000797 55ef     +SUBI R30 , LOW ( - _rx_buffer - ( 1 ) )
000798 4ffd     +SBCI R31 , HIGH ( - _rx_buffer - ( 1 ) )
                 	__ADDW1MN _rx_buffer,1
000799 81e0      	LD   R30,Z
00079a e0f0      	LDI  R31,0
00079b 97f0      	SBIW R30,48
00079c e6a4      	LDI  R26,LOW(100)
00079d e0b0      	LDI  R27,HIGH(100)
00079e 940e 0e54 	CALL __MULW12
0007a0 01bf      	MOVW R22,R30
0007a1 2de4      	MOV  R30,R4
0007a2 e0f0      	LDI  R31,0
                +
0007a3 55ee     +SUBI R30 , LOW ( - _rx_buffer - ( 2 ) )
0007a4 4ffd     +SBCI R31 , HIGH ( - _rx_buffer - ( 2 ) )
                 	__ADDW1MN _rx_buffer,2
0007a5 81e0      	LD   R30,Z
0007a6 e0f0      	LDI  R31,0
0007a7 97f0      	SBIW R30,48
0007a8 e0aa      	LDI  R26,LOW(10)
0007a9 e0b0      	LDI  R27,HIGH(10)
0007aa 940e 0e54 	CALL __MULW12
0007ac 01db      	MOVW R26,R22
0007ad 0fae      	ADD  R26,R30
0007ae 1fbf      	ADC  R27,R31
0007af 2de4      	MOV  R30,R4
0007b0 e0f0      	LDI  R31,0
                +
0007b1 55ed     +SUBI R30 , LOW ( - _rx_buffer - ( 3 ) )
0007b2 4ffd     +SBCI R31 , HIGH ( - _rx_buffer - ( 3 ) )
                 	__ADDW1MN _rx_buffer,3
0007b3 81e0      	LD   R30,Z
0007b4 e0f0      	LDI  R31,0
0007b5 97f0      	SBIW R30,48
0007b6 0fea      	ADD  R30,R26
0007b7 1ffb      	ADC  R31,R27
0007b8 93e0 0262 	STS  _metr,R30
0007ba 93f0 0263 	STS  _metr+1,R31
                 ; 0000 0626 
                 ; 0000 0627 
                 ; 0000 0628              itoa(metr ,lcd_buf);
0007bc 93fa      	ST   -Y,R31
0007bd 93ea      	ST   -Y,R30
0007be e7ac      	LDI  R26,LOW(_lcd_buf)
0007bf e0b2      	LDI  R27,HIGH(_lcd_buf)
0007c0 940e 080b 	CALL _itoa
                 ; 0000 0629 
                 ; 0000 062A               flag=1;
0007c2 9468      	SET
0007c3 f820      	BLD  R2,0
                 ; 0000 062B           while(flag==1){}
                 _0x111:
0007c4 fc20      	SBRC R2,0
0007c5 cffe      	RJMP _0x111
                 ; 0000 062C 
                 ; 0000 062D           lcd_gotoxy(10,0);
0007c6 e0ea      	LDI  R30,LOW(10)
0007c7 940e 0aa1 	CALL SUBOPT_0x3
                 ; 0000 062E 
                 ; 0000 062F           lcd_puts(lcd_buf);
0007c9 940e 0aae 	CALL SUBOPT_0x5
                 ; 0000 0630 
                 ; 0000 0631                  lcd_puts("m");
                +
0007cb e4a0     +LDI R26 , LOW ( _0x5F + ( 209 ) )
0007cc e0b2     +LDI R27 , HIGH ( _0x5F + ( 209 ) )
                 	__POINTW2MN _0x5F,209
0007cd 940e 09cc 	CALL _lcd_puts
                 ; 0000 0632 
                 ; 0000 0633       if(metr<=999)
0007cf 91a0 0262 	LDS  R26,_metr
0007d1 91b0 0263 	LDS  R27,_metr+1
0007d3 3ea8      	CPI  R26,LOW(0x3E8)
0007d4 e0e3      	LDI  R30,HIGH(0x3E8)
0007d5 07be      	CPC  R27,R30
0007d6 f418      	BRSH _0x114
                 ; 0000 0634 
                 ; 0000 0635               lcd_putchar(0X20);
0007d7 e2a0      	LDI  R26,LOW(32)
0007d8 940e 09ac 	CALL _lcd_putchar
                 ; 0000 0636 
                 ; 0000 0637             //  #asm("sei")
                 ; 0000 0638 
                 ; 0000 0639                break;
                 _0x114:
0007da c002      	RJMP _0x10E
                 ; 0000 063A                }
                 ; 0000 063B                }
                 _0x110:
                 ; 0000 063C              }
                 _0x10F:
0007db 9443      	INC  R4
0007dc cfa9      	RJMP _0x10D
                 _0x10E:
                 ; 0000 063D 
                 ; 0000 063E 
                 ; 0000 063F 
                 ; 0000 0640          reset();
0007dd d98d      	RCALL _reset
                 ; 0000 0641               goto m1;
0007de cbe7      	RJMP _0x6A
                 ; 0000 0642 
                 ; 0000 0643 
                 ; 0000 0644 
                 ; 0000 0645 
                 ; 0000 0646 
                 ; 0000 0647             }
                 ; 0000 0648 
                 ; 0000 0649 
                 ; 0000 064A          if( work_gps==10)
                 _0x103:
0007df e0ea      	LDI  R30,LOW(10)
0007e0 15e5      	CP   R30,R5
0007e1 f531      	BRNE _0x115
                 ; 0000 064B           {
                 ; 0000 064C 
                 ; 0000 064D 
                 ; 0000 064E                sum_hours=0;
0007e2 24aa      	CLR  R10
                 ; 0000 064F         //  ed_sek_clock=rx_buffer [i+6]-48;
                 ; 0000 0650 
                 ; 0000 0651             for(i=0; i<rx_wr_index; i++)
0007e3 2444      	CLR  R4
                 _0x117:
0007e4 91e0 0304 	LDS  R30,_rx_wr_index
0007e6 164e      	CP   R4,R30
0007e7 f500      	BRSH _0x118
                 ; 0000 0652        {
                 ; 0000 0653        if  (rx_buffer [i]==',')
0007e8 940e 0b5e 	CALL SUBOPT_0x18
0007ea 32ac      	CPI  R26,LOW(0x2C)
0007eb f4d1      	BRNE _0x119
                 ; 0000 0654        {
                 ; 0000 0655        if(++sum_hours==3)
0007ec 94a3      	INC  R10
0007ed e0e3      	LDI  R30,LOW(3)
0007ee 15ea      	CP   R30,R10
0007ef f4b1      	BRNE _0x11A
                 ; 0000 0656        {
                 ; 0000 0657                       //S sputnik
                 ; 0000 0658 
                 ; 0000 0659         //  decet_sek_clock=(rx_buffer [i+1]-48)*10 + rx_buffer [i+2]-48;
                 ; 0000 065A 
                 ; 0000 065B     //   itoa(decet_sek_clock ,lcd_buf);
                 ; 0000 065C 
                 ; 0000 065D               flag=1;
0007f0 9468      	SET
0007f1 f820      	BLD  R2,0
                 ; 0000 065E        while(flag==1){}
                 _0x11B:
0007f2 fc20      	SBRC R2,0
0007f3 cffe      	RJMP _0x11B
                 ; 0000 065F 
                 ; 0000 0660        if(es_gps==0)
0007f4 91e0 0259 	LDS  R30,_es_gps
0007f6 30e0      	CPI  R30,0
0007f7 f421      	BRNE _0x11E
                 ; 0000 0661        {
                 ; 0000 0662          lcd_gotoxy(12,0);
0007f8 e0ec      	LDI  R30,LOW(12)
0007f9 940e 0aa1 	CALL SUBOPT_0x3
                 ; 0000 0663             lcd_d ();
0007fb d97e      	RCALL _lcd_d
                 ; 0000 0664             }
                 ; 0000 0665         if(st_po==4)
                 _0x11E:
0007fc 91a0 0253 	LDS  R26,_st_po
0007fe 30a4      	CPI  R26,LOW(0x4)
0007ff f421      	BRNE _0x11F
                 ; 0000 0666         {
                 ; 0000 0667           lcd_gotoxy(7,0);
000800 e0e7      	LDI  R30,LOW(7)
000801 940e 0aa1 	CALL SUBOPT_0x3
                 ; 0000 0668             lcd_d ();
000803 d976      	RCALL _lcd_d
                 ; 0000 0669               }
                 ; 0000 066A           //  #asm("sei")
                 ; 0000 066B 
                 ; 0000 066C          reset();
                 _0x11F:
000804 d966      	RCALL _reset
                 ; 0000 066D               goto m1;
000805 cbc0      	RJMP _0x6A
                 ; 0000 066E 
                 ; 0000 066F 
                 ; 0000 0670 
                 ; 0000 0671            break;
                 ; 0000 0672 
                 ; 0000 0673             }
                 ; 0000 0674 
                 ; 0000 0675             }
                 _0x11A:
                 ; 0000 0676           }
                 _0x119:
000806 9443      	INC  R4
000807 cfdc      	RJMP _0x117
                 _0x118:
                 ; 0000 0677 
                 ; 0000 0678         }
                 ; 0000 0679           reset ();
                 _0x115:
000808 d962      	RCALL _reset
                 ; 0000 067A 
                 ; 0000 067B       }
000809 cbbc      	RJMP _0x67
                 ; 0000 067C }
                 _0x120:
00080a cfff      	RJMP _0x120
                 ; .FEND
                 
                 	.DSEG
                 _0x5F:
00016f           	.BYTE 0xD3
                 
                 	.CSEG
                 _itoa:
                 ; .FSTART _itoa
00080b 93ba      	ST   -Y,R27
00080c 93aa      	ST   -Y,R26
00080d 91a9          ld   r26,y+
00080e 91b9          ld   r27,y+
00080f 91e9          ld   r30,y+
000810 91f9          ld   r31,y+
000811 9630          adiw r30,0
000812 f42a          brpl __itoa0
000813 95e0          com  r30
000814 95f0          com  r31
000815 9631          adiw r30,1
000816 e26d          ldi  r22,'-'
000817 936d          st   x+,r22
                 __itoa0:
000818 94e8          clt
000819 e180          ldi  r24,low(10000)
00081a e297          ldi  r25,high(10000)
00081b d00d          rcall __itoa1
00081c ee88          ldi  r24,low(1000)
00081d e093          ldi  r25,high(1000)
00081e d00a          rcall __itoa1
00081f e684          ldi  r24,100
000820 2799          clr  r25
000821 d007          rcall __itoa1
000822 e08a          ldi  r24,10
000823 d005          rcall __itoa1
000824 2f6e          mov  r22,r30
000825 d010          rcall __itoa5
000826 2766          clr  r22
000827 936c          st   x,r22
000828 9508          ret
                 
                 __itoa1:
000829 2766          clr	 r22
                 __itoa2:
00082a 17e8          cp   r30,r24
00082b 07f9          cpc  r31,r25
00082c f020          brlo __itoa3
00082d 9563          inc  r22
00082e 1be8          sub  r30,r24
00082f 0bf9          sbc  r31,r25
000830 f7c9          brne __itoa2
                 __itoa3:
000831 2366          tst  r22
000832 f411          brne __itoa4
000833 f016          brts __itoa5
000834 9508          ret
                 __itoa4:
000835 9468          set
                 __itoa5:
000836 5d60          subi r22,-0x30
000837 936d          st   x+,r22
000838 9508          ret
                 ; .FEND
                 _ftoa:
                 ; .FSTART _ftoa
000839 93ba      	ST   -Y,R27
00083a 93aa      	ST   -Y,R26
00083b 9724      	SBIW R28,4
00083c e0e0      	LDI  R30,LOW(0)
00083d 83e8      	ST   Y,R30
00083e 83e9      	STD  Y+1,R30
00083f 83ea      	STD  Y+2,R30
000840 e3ef      	LDI  R30,LOW(63)
000841 83eb      	STD  Y+3,R30
000842 931a      	ST   -Y,R17
000843 930a      	ST   -Y,R16
000844 85eb      	LDD  R30,Y+11
000845 85fc      	LDD  R31,Y+11+1
000846 3fef      	CPI  R30,LOW(0xFFFF)
000847 efaf      	LDI  R26,HIGH(0xFFFF)
000848 07fa      	CPC  R31,R26
000849 f439      	BRNE _0x200000D
00084a 940e 0b7f 	CALL SUBOPT_0x1D
                +
00084c e1a6     +LDI R26 , LOW ( 2 * _0x2000000 + ( 0 ) )
00084d e0b1     +LDI R27 , HIGH ( 2 * _0x2000000 + ( 0 ) )
                 	__POINTW2FN _0x2000000,0
00084e 940e 0a23 	CALL _strcpyf
000850 c0b1      	RJMP _0x2120005
                 _0x200000D:
000851 3fef      	CPI  R30,LOW(0x7FFF)
000852 e7af      	LDI  R26,HIGH(0x7FFF)
000853 07fa      	CPC  R31,R26
000854 f439      	BRNE _0x200000C
000855 940e 0b7f 	CALL SUBOPT_0x1D
                +
000857 e1a7     +LDI R26 , LOW ( 2 * _0x2000000 + ( 1 ) )
000858 e0b1     +LDI R27 , HIGH ( 2 * _0x2000000 + ( 1 ) )
                 	__POINTW2FN _0x2000000,1
000859 940e 0a23 	CALL _strcpyf
00085b c0a6      	RJMP _0x2120005
                 _0x200000C:
00085c 85ac      	LDD  R26,Y+12
00085d 23aa      	TST  R26
00085e f462      	BRPL _0x200000F
                +
00085f 85e9     +LDD R30 , Y + 9
000860 85fa     +LDD R31 , Y + 9 + 1
000861 856b     +LDD R22 , Y + 9 + 2
000862 857c     +LDD R23 , Y + 9 + 3
                 	__GETD1S 9
000863 940e 0c83 	CALL __ANEGF1
000865 940e 0b84 	CALL SUBOPT_0x1E
000867 940e 0b89 	CALL SUBOPT_0x1F
000869 e2ed      	LDI  R30,LOW(45)
00086a 93ec      	ST   X,R30
                 _0x200000F:
00086b 85a8      	LDD  R26,Y+8
00086c 30a7      	CPI  R26,LOW(0x7)
00086d f010      	BRLO _0x2000010
00086e e0e6      	LDI  R30,LOW(6)
00086f 87e8      	STD  Y+8,R30
                 _0x2000010:
000870 8518      	LDD  R17,Y+8
                 _0x2000011:
000871 2fe1      	MOV  R30,R17
000872 5011      	SUBI R17,1
000873 30e0      	CPI  R30,0
000874 f039      	BREQ _0x2000013
000875 940e 0b90 	CALL SUBOPT_0x20
000877 940e 0b95 	CALL SUBOPT_0x21
000879 940e 0b9c 	CALL SUBOPT_0x22
00087b cff5      	RJMP _0x2000011
                 _0x2000013:
00087c 940e 0ba1 	CALL SUBOPT_0x23
00087e 940e 0d29 	CALL __ADDF12
000880 940e 0b84 	CALL SUBOPT_0x1E
000882 e010      	LDI  R17,LOW(0)
                +
000883 e0e0     +LDI R30 , LOW ( 0x3F800000 )
000884 e0f0     +LDI R31 , HIGH ( 0x3F800000 )
000885 e860     +LDI R22 , BYTE3 ( 0x3F800000 )
000886 e37f     +LDI R23 , BYTE4 ( 0x3F800000 )
                 	__GETD1N 0x3F800000
000887 940e 0b9c 	CALL SUBOPT_0x22
                 _0x2000014:
000889 940e 0ba1 	CALL SUBOPT_0x23
00088b 940e 0e0c 	CALL __CMPF12
00088d f088      	BRLO _0x2000016
00088e 940e 0b90 	CALL SUBOPT_0x20
000890 940e 0baa 	CALL SUBOPT_0x24
000892 940e 0b9c 	CALL SUBOPT_0x22
000894 5f1f      	SUBI R17,-LOW(1)
000895 3217      	CPI  R17,39
000896 f038      	BRLO _0x2000017
000897 940e 0b7f 	CALL SUBOPT_0x1D
                +
000899 e1ab     +LDI R26 , LOW ( 2 * _0x2000000 + ( 5 ) )
00089a e0b1     +LDI R27 , HIGH ( 2 * _0x2000000 + ( 5 ) )
                 	__POINTW2FN _0x2000000,5
00089b 940e 0a23 	CALL _strcpyf
00089d c064      	RJMP _0x2120005
                 _0x2000017:
00089e cfea      	RJMP _0x2000014
                 _0x2000016:
00089f 3010      	CPI  R17,0
0008a0 f429      	BRNE _0x2000018
0008a1 940e 0b89 	CALL SUBOPT_0x1F
0008a3 e3e0      	LDI  R30,LOW(48)
0008a4 93ec      	ST   X,R30
0008a5 c02f      	RJMP _0x2000019
                 _0x2000018:
                 _0x200001A:
0008a6 2fe1      	MOV  R30,R17
0008a7 5011      	SUBI R17,1
0008a8 30e0      	CPI  R30,0
0008a9 f159      	BREQ _0x200001C
0008aa 940e 0b90 	CALL SUBOPT_0x20
0008ac 940e 0b95 	CALL SUBOPT_0x21
                +
0008ae e0a0     +LDI R26 , LOW ( 0x3F000000 )
0008af e0b0     +LDI R27 , HIGH ( 0x3F000000 )
0008b0 e080     +LDI R24 , BYTE3 ( 0x3F000000 )
0008b1 e39f     +LDI R25 , BYTE4 ( 0x3F000000 )
                 	__GETD2N 0x3F000000
0008b2 940e 0d29 	CALL __ADDF12
0008b4 01df      	MOVW R26,R30
0008b5 01cb      	MOVW R24,R22
0008b6 940e 0a61 	CALL _floor
0008b8 940e 0b9c 	CALL SUBOPT_0x22
0008ba 940e 0ba1 	CALL SUBOPT_0x23
0008bc 940e 0dc7 	CALL __DIVF21
0008be 940e 0cb6 	CALL __CFD1U
0008c0 2f0e      	MOV  R16,R30
0008c1 940e 0b89 	CALL SUBOPT_0x1F
0008c3 2fe0      	MOV  R30,R16
0008c4 5de0      	SUBI R30,-LOW(48)
0008c5 93ec      	ST   X,R30
0008c6 2fe0      	MOV  R30,R16
0008c7 e0f0      	LDI  R31,0
0008c8 940e 0b90 	CALL SUBOPT_0x20
0008ca 940e 0e47 	CALL __CWD1
0008cc 940e 0cef 	CALL __CDF1
0008ce 940e 0d79 	CALL __MULF12
0008d0 940e 0bb1 	CALL SUBOPT_0x25
0008d2 940e 0bb6 	CALL SUBOPT_0x26
0008d4 cfd1      	RJMP _0x200001A
                 _0x200001C:
                 _0x2000019:
0008d5 85e8      	LDD  R30,Y+8
0008d6 30e0      	CPI  R30,0
0008d7 f131      	BREQ _0x2120004
0008d8 940e 0b89 	CALL SUBOPT_0x1F
0008da e2ee      	LDI  R30,LOW(46)
0008db 93ec      	ST   X,R30
                 _0x200001E:
0008dc 85e8      	LDD  R30,Y+8
0008dd 50e1      	SUBI R30,LOW(1)
0008de 87e8      	STD  Y+8,R30
0008df 5fef      	SUBI R30,-LOW(1)
0008e0 f0e9      	BREQ _0x2000020
0008e1 940e 0bb1 	CALL SUBOPT_0x25
0008e3 940e 0baa 	CALL SUBOPT_0x24
0008e5 940e 0b84 	CALL SUBOPT_0x1E
                +
0008e7 85e9     +LDD R30 , Y + 9
0008e8 85fa     +LDD R31 , Y + 9 + 1
0008e9 856b     +LDD R22 , Y + 9 + 2
0008ea 857c     +LDD R23 , Y + 9 + 3
                 	__GETD1S 9
0008eb 940e 0cb6 	CALL __CFD1U
0008ed 2f0e      	MOV  R16,R30
0008ee 940e 0b89 	CALL SUBOPT_0x1F
0008f0 2fe0      	MOV  R30,R16
0008f1 5de0      	SUBI R30,-LOW(48)
0008f2 93ec      	ST   X,R30
0008f3 2fe0      	MOV  R30,R16
0008f4 e0f0      	LDI  R31,0
0008f5 940e 0bb1 	CALL SUBOPT_0x25
0008f7 940e 0e47 	CALL __CWD1
0008f9 940e 0cef 	CALL __CDF1
0008fb 940e 0bb6 	CALL SUBOPT_0x26
0008fd cfde      	RJMP _0x200001E
                 _0x2000020:
                 _0x2120004:
0008fe 81ae      	LDD  R26,Y+6
0008ff 81bf      	LDD  R27,Y+6+1
000900 e0e0      	LDI  R30,LOW(0)
000901 93ec      	ST   X,R30
                 _0x2120005:
000902 8119      	LDD  R17,Y+1
000903 8108      	LDD  R16,Y+0
000904 962d      	ADIW R28,13
000905 9508      	RET
                 ; .FEND
                 
                 	.DSEG
                 
                 	.CSEG
                 
                 	.CSEG
                 
                 	.CSEG
                 _rtc_init:
                 ; .FSTART _rtc_init
000906 93aa      	ST   -Y,R26
000907 81ea      	LDD  R30,Y+2
000908 70e3      	ANDI R30,LOW(0x3)
000909 83ea      	STD  Y+2,R30
00090a 81e9      	LDD  R30,Y+1
00090b 30e0      	CPI  R30,0
00090c f019      	BREQ _0x2040003
00090d 81ea      	LDD  R30,Y+2
00090e 61e0      	ORI  R30,0x10
00090f 83ea      	STD  Y+2,R30
                 _0x2040003:
000910 81e8      	LD   R30,Y
000911 30e0      	CPI  R30,0
000912 f019      	BREQ _0x2040004
000913 81ea      	LDD  R30,Y+2
000914 68e0      	ORI  R30,0x80
000915 83ea      	STD  Y+2,R30
                 _0x2040004:
000916 940e 0bbb 	CALL SUBOPT_0x27
000918 e0a7      	LDI  R26,LOW(7)
000919 940e 0c11 	CALL _i2c_write
00091b 81aa      	LDD  R26,Y+2
00091c 940e 0bc0 	CALL SUBOPT_0x28
00091e c0bc      	RJMP _0x2120003
                 ; .FEND
                 _rtc_get_time:
                 ; .FSTART _rtc_get_time
00091f 93ba      	ST   -Y,R27
000920 93aa      	ST   -Y,R26
000921 940e 0bbb 	CALL SUBOPT_0x27
000923 e0a0      	LDI  R26,LOW(0)
000924 940e 0bc0 	CALL SUBOPT_0x28
000926 940e 0bdd 	CALL _i2c_start
000928 eda1      	LDI  R26,LOW(209)
000929 940e 0c11 	CALL _i2c_write
00092b 940e 0bc4 	CALL SUBOPT_0x29
00092d 81a8      	LD   R26,Y
00092e 81b9      	LDD  R27,Y+1
00092f 93ec      	ST   X,R30
000930 940e 0bc4 	CALL SUBOPT_0x29
000932 81aa      	LDD  R26,Y+2
000933 81bb      	LDD  R27,Y+2+1
000934 93ec      	ST   X,R30
000935 e0a0      	LDI  R26,LOW(0)
000936 940e 0bf6 	CALL _i2c_read
000938 2fae      	MOV  R26,R30
000939 940e 0a78 	CALL _bcd2bin
00093b 81ac      	LDD  R26,Y+4
00093c 81bd      	LDD  R27,Y+4+1
00093d 93ec      	ST   X,R30
00093e 940e 0bec 	CALL _i2c_stop
000940 9626      	ADIW R28,6
000941 9508      	RET
                 ; .FEND
                 _rtc_set_time:
                 ; .FSTART _rtc_set_time
000942 93aa      	ST   -Y,R26
000943 940e 0bbb 	CALL SUBOPT_0x27
000945 e0a0      	LDI  R26,LOW(0)
000946 940e 0c11 	CALL _i2c_write
000948 81a8      	LD   R26,Y
000949 940e 0a85 	CALL _bin2bcd
00094b 2fae      	MOV  R26,R30
00094c 940e 0c11 	CALL _i2c_write
00094e 81a9      	LDD  R26,Y+1
00094f 940e 0a85 	CALL _bin2bcd
000951 2fae      	MOV  R26,R30
000952 940e 0c11 	CALL _i2c_write
000954 81aa      	LDD  R26,Y+2
000955 940e 0a85 	CALL _bin2bcd
000957 2fae      	MOV  R26,R30
000958 940e 0bc0 	CALL SUBOPT_0x28
00095a c080      	RJMP _0x2120003
                 ; .FEND
                 	#ifndef __SLEEP_DEFINED__
                 	#endif
                 
                 	.DSEG
                 
                 	.CSEG
                 __lcd_write_nibble_G103:
                 ; .FSTART __lcd_write_nibble_G103
00095b 93aa      	ST   -Y,R26
00095c 81e8      	LD   R30,Y
00095d 71e0      	ANDI R30,LOW(0x10)
00095e f011      	BREQ _0x2060004
00095f 9ac3      	SBI  0x18,3
000960 c001      	RJMP _0x2060005
                 _0x2060004:
000961 98c3      	CBI  0x18,3
                 _0x2060005:
000962 81e8      	LD   R30,Y
000963 72e0      	ANDI R30,LOW(0x20)
000964 f011      	BREQ _0x2060006
000965 9ac4      	SBI  0x18,4
000966 c001      	RJMP _0x2060007
                 _0x2060006:
000967 98c4      	CBI  0x18,4
                 _0x2060007:
000968 81e8      	LD   R30,Y
000969 74e0      	ANDI R30,LOW(0x40)
00096a f011      	BREQ _0x2060008
00096b 9ac5      	SBI  0x18,5
00096c c001      	RJMP _0x2060009
                 _0x2060008:
00096d 98c5      	CBI  0x18,5
                 _0x2060009:
00096e 81e8      	LD   R30,Y
00096f 78e0      	ANDI R30,LOW(0x80)
000970 f011      	BREQ _0x206000A
000971 9ac6      	SBI  0x18,6
000972 c001      	RJMP _0x206000B
                 _0x206000A:
000973 98c6      	CBI  0x18,6
                 _0x206000B:
                +
000974 e08d     +LDI R24 , LOW ( 13 )
                +__DELAY_USB_LOOP :
000975 958a     +DEC R24
000976 f7f1     +BRNE __DELAY_USB_LOOP
                 	__DELAY_USB 13
000977 9ac2      	SBI  0x18,2
                +
000978 e08d     +LDI R24 , LOW ( 13 )
                +__DELAY_USB_LOOP :
000979 958a     +DEC R24
00097a f7f1     +BRNE __DELAY_USB_LOOP
                 	__DELAY_USB 13
00097b 98c2      	CBI  0x18,2
                +
00097c e08d     +LDI R24 , LOW ( 13 )
                +__DELAY_USB_LOOP :
00097d 958a     +DEC R24
00097e f7f1     +BRNE __DELAY_USB_LOOP
                 	__DELAY_USB 13
00097f 940c 0a11 	JMP  _0x2120002
                 ; .FEND
                 __lcd_write_data:
                 ; .FSTART __lcd_write_data
000981 93aa      	ST   -Y,R26
000982 81a8      	LD   R26,Y
000983 dfd7      	RCALL __lcd_write_nibble_G103
000984 81e8          ld    r30,y
000985 95e2          swap  r30
000986 83e8          st    y,r30
000987 81a8      	LD   R26,Y
000988 dfd2      	RCALL __lcd_write_nibble_G103
                +
000989 e885     +LDI R24 , LOW ( 133 )
                +__DELAY_USB_LOOP :
00098a 958a     +DEC R24
00098b f7f1     +BRNE __DELAY_USB_LOOP
                 	__DELAY_USB 133
00098c c084      	RJMP _0x2120002
                 ; .FEND
                 _lcd_gotoxy:
                 ; .FSTART _lcd_gotoxy
00098d 93aa      	ST   -Y,R26
00098e 81e8      	LD   R30,Y
00098f e0f0      	LDI  R31,0
000990 5fe5      	SUBI R30,LOW(-__base_y_G103)
000991 4ffc      	SBCI R31,HIGH(-__base_y_G103)
000992 81e0      	LD   R30,Z
000993 81a9      	LDD  R26,Y+1
000994 0fae      	ADD  R26,R30
000995 dfeb      	RCALL __lcd_write_data
000996 81e9      	LDD  R30,Y+1
000997 93e0 030f 	STS  __lcd_x,R30
000999 81e8      	LD   R30,Y
00099a 93e0 0310 	STS  __lcd_y,R30
00099c 9622      	ADIW R28,2
00099d 9508      	RET
                 ; .FEND
                 _lcd_clear:
                 ; .FSTART _lcd_clear
00099e e0a2      	LDI  R26,LOW(2)
00099f 940e 0bca 	CALL SUBOPT_0x2A
0009a1 e0ac      	LDI  R26,LOW(12)
0009a2 dfde      	RCALL __lcd_write_data
0009a3 e0a1      	LDI  R26,LOW(1)
0009a4 940e 0bca 	CALL SUBOPT_0x2A
0009a6 e0e0      	LDI  R30,LOW(0)
0009a7 93e0 0310 	STS  __lcd_y,R30
0009a9 93e0 030f 	STS  __lcd_x,R30
0009ab 9508      	RET
                 ; .FEND
                 _lcd_putchar:
                 ; .FSTART _lcd_putchar
0009ac 93aa      	ST   -Y,R26
0009ad 81a8      	LD   R26,Y
0009ae 30aa      	CPI  R26,LOW(0xA)
0009af f031      	BREQ _0x2060011
0009b0 91e0 0311 	LDS  R30,__lcd_maxx
0009b2 91a0 030f 	LDS  R26,__lcd_x
0009b4 17ae      	CP   R26,R30
0009b5 f060      	BRLO _0x2060010
                 _0x2060011:
0009b6 e0e0      	LDI  R30,LOW(0)
0009b7 93ea      	ST   -Y,R30
0009b8 91a0 0310 	LDS  R26,__lcd_y
0009ba 5faf      	SUBI R26,-LOW(1)
0009bb 93a0 0310 	STS  __lcd_y,R26
0009bd dfcf      	RCALL _lcd_gotoxy
0009be 81a8      	LD   R26,Y
0009bf 30aa      	CPI  R26,LOW(0xA)
0009c0 f409      	BRNE _0x2060013
0009c1 c04f      	RJMP _0x2120002
                 _0x2060013:
                 _0x2060010:
0009c2 91e0 030f 	LDS  R30,__lcd_x
0009c4 5fef      	SUBI R30,-LOW(1)
0009c5 93e0 030f 	STS  __lcd_x,R30
0009c7 9ac0      	SBI  0x18,0
0009c8 81a8      	LD   R26,Y
0009c9 dfb7      	RCALL __lcd_write_data
0009ca 98c0      	CBI  0x18,0
0009cb c045      	RJMP _0x2120002
                 ; .FEND
                 _lcd_puts:
                 ; .FSTART _lcd_puts
0009cc 93ba      	ST   -Y,R27
0009cd 93aa      	ST   -Y,R26
0009ce 931a      	ST   -Y,R17
                 _0x2060014:
0009cf 81a9      	LDD  R26,Y+1
0009d0 81ba      	LDD  R27,Y+1+1
0009d1 91ed      	LD   R30,X+
0009d2 83a9      	STD  Y+1,R26
0009d3 83ba      	STD  Y+1+1,R27
0009d4 2f1e      	MOV  R17,R30
0009d5 30e0      	CPI  R30,0
0009d6 f019      	BREQ _0x2060016
0009d7 2fa1      	MOV  R26,R17
0009d8 dfd3      	RCALL _lcd_putchar
0009d9 cff5      	RJMP _0x2060014
                 _0x2060016:
0009da 8118      	LDD  R17,Y+0
                 _0x2120003:
0009db 9623      	ADIW R28,3
0009dc 9508      	RET
                 ; .FEND
                 _lcd_init:
                 ; .FSTART _lcd_init
0009dd 93aa      	ST   -Y,R26
0009de 9abb      	SBI  0x17,3
0009df 9abc      	SBI  0x17,4
0009e0 9abd      	SBI  0x17,5
0009e1 9abe      	SBI  0x17,6
0009e2 9aba      	SBI  0x17,2
0009e3 9ab8      	SBI  0x17,0
0009e4 9ab9      	SBI  0x17,1
0009e5 98c2      	CBI  0x18,2
0009e6 98c0      	CBI  0x18,0
0009e7 98c1      	CBI  0x18,1
0009e8 81e8      	LD   R30,Y
0009e9 93e0 0311 	STS  __lcd_maxx,R30
0009eb 58e0      	SUBI R30,-LOW(128)
                +
0009ec 93e0 030d+STS __base_y_G103 + ( 2 ) , R30
                 	__PUTB1MN __base_y_G103,2
0009ee 81e8      	LD   R30,Y
0009ef 54e0      	SUBI R30,-LOW(192)
                +
0009f0 93e0 030e+STS __base_y_G103 + ( 3 ) , R30
                 	__PUTB1MN __base_y_G103,3
0009f2 e1a4      	LDI  R26,LOW(20)
0009f3 e0b0      	LDI  R27,0
0009f4 940e 0c29 	CALL _delay_ms
0009f6 940e 0bd0 	CALL SUBOPT_0x2B
0009f8 940e 0bd0 	CALL SUBOPT_0x2B
0009fa 940e 0bd0 	CALL SUBOPT_0x2B
0009fc e2a0      	LDI  R26,LOW(32)
0009fd df5d      	RCALL __lcd_write_nibble_G103
                +
0009fe ec88     +LDI R24 , LOW ( 200 )
0009ff e090     +LDI R25 , HIGH ( 200 )
                +__DELAY_USW_LOOP :
000a00 9701     +SBIW R24 , 1
000a01 f7f1     +BRNE __DELAY_USW_LOOP
                 	__DELAY_USW 200
000a02 e2a8      	LDI  R26,LOW(40)
000a03 df7d      	RCALL __lcd_write_data
000a04 e0a4      	LDI  R26,LOW(4)
000a05 df7b      	RCALL __lcd_write_data
000a06 e8a5      	LDI  R26,LOW(133)
000a07 df79      	RCALL __lcd_write_data
000a08 e0a6      	LDI  R26,LOW(6)
000a09 df77      	RCALL __lcd_write_data
000a0a df93      	RCALL _lcd_clear
000a0b c005      	RJMP _0x2120002
                 ; .FEND
                 	#ifndef __SLEEP_DEFINED__
                 	#endif
                 
                 	.CSEG
                 _putchar:
                 ; .FSTART _putchar
000a0c 93aa      	ST   -Y,R26
                 putchar0:
000a0d 9b5d           sbis usr,udre
000a0e cffe           rjmp putchar0
000a0f 81e8           ld   r30,y
000a10 b9ec           out  udr,r30
                 _0x2120002:
000a11 9621      	ADIW R28,1
000a12 9508      	RET
                 ; .FEND
                 
                 	.CSEG
                 _memset:
                 ; .FSTART _memset
000a13 93ba      	ST   -Y,R27
000a14 93aa      	ST   -Y,R26
000a15 81b9          ldd  r27,y+1
000a16 81a8          ld   r26,y
000a17 9610          adiw r26,0
000a18 f031          breq memset1
000a19 81fc          ldd  r31,y+4
000a1a 81eb          ldd  r30,y+3
000a1b 816a          ldd  r22,y+2
                 memset0:
000a1c 9361          st   z+,r22
000a1d 9711          sbiw r26,1
000a1e f7e9          brne memset0
                 memset1:
000a1f 81eb          ldd  r30,y+3
000a20 81fc          ldd  r31,y+4
000a21 9625      	ADIW R28,5
000a22 9508      	RET
                 ; .FEND
                 _strcpyf:
                 ; .FSTART _strcpyf
000a23 93ba      	ST   -Y,R27
000a24 93aa      	ST   -Y,R26
000a25 91e9          ld   r30,y+
000a26 91f9          ld   r31,y+
000a27 91a9          ld   r26,y+
000a28 91b9          ld   r27,y+
000a29 01cd          movw r24,r26
                 strcpyf0:
000a2a 9005      	lpm  r0,z+
000a2b 920d          st   x+,r0
000a2c 2000          tst  r0
000a2d f7e1          brne strcpyf0
000a2e 01fc          movw r30,r24
000a2f 9508          ret
                 ; .FEND
                 
                 	.CSEG
                 
                 	.CSEG
                 _ftrunc:
                 ; .FSTART _ftrunc
000a30 940e 0ea6 	CALL __PUTPARD2
000a32 817b         ldd  r23,y+3
000a33 816a         ldd  r22,y+2
000a34 81f9         ldd  r31,y+1
000a35 81e8         ld   r30,y
000a36 fb77         bst  r23,7
000a37 0f77         lsl  r23
000a38 fd67         sbrc r22,7
000a39 6071         sbr  r23,1
000a3a 2f97         mov  r25,r23
000a3b 579e         subi r25,0x7e
000a3c f081         breq __ftrunc0
000a3d f078         brcs __ftrunc0
000a3e 3198         cpi  r25,24
000a3f f490         brsh __ftrunc1
000a40 27aa         clr  r26
000a41 27bb         clr  r27
000a42 2788         clr  r24
                 __ftrunc2:
000a43 9408         sec
000a44 9587         ror  r24
000a45 95b7         ror  r27
000a46 95a7         ror  r26
000a47 959a         dec  r25
000a48 f7d1         brne __ftrunc2
000a49 23ea         and  r30,r26
000a4a 23fb         and  r31,r27
000a4b 2368         and  r22,r24
000a4c c005         rjmp __ftrunc1
                 __ftrunc0:
000a4d 94e8         clt
000a4e 2777         clr  r23
000a4f 27ee         clr  r30
000a50 27ff         clr  r31
000a51 2766         clr  r22
                 __ftrunc1:
000a52 776f         cbr  r22,0x80
000a53 9576         lsr  r23
000a54 f408         brcc __ftrunc3
000a55 6860         sbr  r22,0x80
                 __ftrunc3:
000a56 f977         bld  r23,7
000a57 91a9         ld   r26,y+
000a58 91b9         ld   r27,y+
000a59 9189         ld   r24,y+
000a5a 9199         ld   r25,y+
000a5b 17ea         cp   r30,r26
000a5c 07fb         cpc  r31,r27
000a5d 0768         cpc  r22,r24
000a5e 0779         cpc  r23,r25
000a5f fb97         bst  r25,7
000a60 9508         ret
                 ; .FEND
                 _floor:
                 ; .FSTART _floor
000a61 940e 0ea6 	CALL __PUTPARD2
000a63 940e 0e97 	CALL __GETD2S0
000a65 940e 0a30 	CALL _ftrunc
000a67 940e 0e9c 	CALL __PUTD1S0
000a69 f419          brne __floor1
                 __floor0:
000a6a 940e 0e92 	CALL __GETD1S0
000a6c c009      	RJMP _0x2120001
                 __floor1:
000a6d f7e6          brtc __floor0
000a6e 940e 0e92 	CALL __GETD1S0
                +
000a70 e0a0     +LDI R26 , LOW ( 0x3F800000 )
000a71 e0b0     +LDI R27 , HIGH ( 0x3F800000 )
000a72 e880     +LDI R24 , BYTE3 ( 0x3F800000 )
000a73 e39f     +LDI R25 , BYTE4 ( 0x3F800000 )
                 	__GETD2N 0x3F800000
000a74 940e 0d22 	CALL __SUBF12
                 _0x2120001:
000a76 9624      	ADIW R28,4
000a77 9508      	RET
                 ; .FEND
                 
                 	.CSEG
                 _bcd2bin:
                 ; .FSTART _bcd2bin
000a78 93aa      	ST   -Y,R26
000a79 81e8          ld   r30,y
000a7a 95e2          swap r30
000a7b 70ef          andi r30,0xf
000a7c 2fae          mov  r26,r30
000a7d 0faa          lsl  r26
000a7e 0faa          lsl  r26
000a7f 0fea          add  r30,r26
000a80 0fee          lsl  r30
000a81 91a9          ld   r26,y+
000a82 70af          andi r26,0xf
000a83 0fea          add  r30,r26
000a84 9508          ret
                 ; .FEND
                 _bin2bcd:
                 ; .FSTART _bin2bcd
000a85 93aa      	ST   -Y,R26
000a86 91a9          ld   r26,y+
000a87 27ee          clr  r30
                 bin2bcd0:
000a88 50aa          subi r26,10
000a89 f012          brmi bin2bcd1
000a8a 5fe0          subi r30,-16
000a8b cffc          rjmp bin2bcd0
                 bin2bcd1:
000a8c 5fa6          subi r26,-10
000a8d 0fea          add  r30,r26
000a8e 9508          ret
                 ; .FEND
                 
                 	.DSEG
                 ___ds1820_scratch_pad:
000242           	.BYTE 0x9
                 _decet_min_clock:
00024b           	.BYTE 0x1
                 _ed_hours_clock:
00024c           	.BYTE 0x1
                 _decet_Hours_clock:
00024d           	.BYTE 0x1
                 _h:
00024e           	.BYTE 0x1
                 _m:
00024f           	.BYTE 0x1
                 _s:
000250           	.BYTE 0x1
                 _st:
000251           	.BYTE 0x1
                 _st_v:
000252           	.BYTE 0x1
                 _st_po:
000253           	.BYTE 0x1
                 _err:
000254           	.BYTE 0x2
                 _counter:
000256           	.BYTE 0x1
                 _work:
000257           	.BYTE 0x1
                 _test:
000258           	.BYTE 0x1
                 _es_gps:
000259           	.BYTE 0x1
                 _cnt_rem:
00025a           	.BYTE 0x1
                 _cnt_c:
00025b           	.BYTE 0x1
                 _error:
00025c           	.BYTE 0x1
                 _kvadrat:
00025d           	.BYTE 0x1
                 _decet_sek_clock:
00025e           	.BYTE 0x1
                 _alarm_u:
00025f           	.BYTE 0x1
                 _c:
000260           	.BYTE 0x1
                 _t:
000261           	.BYTE 0x1
                 _metr:
000262           	.BYTE 0x2
                 _ts:
000264           	.BYTE 0x1
                 _tm:
000265           	.BYTE 0x1
                 _st_s:
000266           	.BYTE 0x1
                 _r:
000267           	.BYTE 0x1
                 _met:
000268           	.BYTE 0x1
                 _adc_dataw:
000269           	.BYTE 0x2
                 _adc_data:
00026b           	.BYTE 0x2
                 _adc_datawi:
00026d           	.BYTE 0x2
                 _cout_in:
00026f           	.BYTE 0x1
                 _copy:
000270           	.BYTE 0x4
                 _wcnt_rem:
000274           	.BYTE 0x4
                 _wcnt_c:
000278           	.BYTE 0x4
                 _lcd_buf:
00027c           	.BYTE 0x10
                 _speed_array:
00028c           	.BYTE 0xA
                 _speed:
000296           	.BYTE 0xA
                 _rx_buffer:
0002a0           	.BYTE 0x64
                 _rx_wr_index:
000304           	.BYTE 0x1
                 _rx_rd_index:
000305           	.BYTE 0x1
                 _rx_counter:
000306           	.BYTE 0x1
                 __seed_G100:
000307           	.BYTE 0x4
                 __base_y_G103:
00030b           	.BYTE 0x4
                 __lcd_x:
00030f           	.BYTE 0x1
                 __lcd_y:
000310           	.BYTE 0x1
                 __lcd_maxx:
000311           	.BYTE 0x1
                 
                 	.CSEG
                 ;OPTIMIZER ADDED SUBROUTINE, CALLED 3 TIMES, CODE SIZE REDUCTION:3 WORDS
                 SUBOPT_0x0:
000a8f 2de4      	MOV  R30,R4
000a90 e0f0      	LDI  R31,0
                +
000a91 55ef     +SUBI R30 , LOW ( - _rx_buffer - ( 1 ) )
000a92 4ffd     +SBCI R31 , HIGH ( - _rx_buffer - ( 1 ) )
                 	__ADDW1MN _rx_buffer,1
000a93 81a0      	LD   R26,Z
000a94 9508      	RET
                 
                 ;OPTIMIZER ADDED SUBROUTINE, CALLED 10 TIMES, CODE SIZE REDUCTION:24 WORDS
                 SUBOPT_0x1:
000a95 e0e0      	LDI  R30,LOW(0)
000a96 93ea      	ST   -Y,R30
000a97 e0a0      	LDI  R26,LOW(0)
000a98 940c 098d 	JMP  _lcd_gotoxy
                 
                 ;OPTIMIZER ADDED SUBROUTINE, CALLED 2 TIMES, CODE SIZE REDUCTION:2 WORDS
                 SUBOPT_0x2:
000a9a 940e 09cc 	CALL _lcd_puts
000a9c e0e6      	LDI  R30,LOW(6)
000a9d 93ea      	ST   -Y,R30
000a9e e0a0      	LDI  R26,LOW(0)
000a9f 940c 098d 	JMP  _lcd_gotoxy
                 
                 ;OPTIMIZER ADDED SUBROUTINE, CALLED 13 TIMES, CODE SIZE REDUCTION:21 WORDS
                 SUBOPT_0x3:
000aa1 93ea      	ST   -Y,R30
000aa2 e0a0      	LDI  R26,LOW(0)
000aa3 940c 098d 	JMP  _lcd_gotoxy
                 
                 ;OPTIMIZER ADDED SUBROUTINE, CALLED 2 TIMES, CODE SIZE REDUCTION:4 WORDS
                 SUBOPT_0x4:
000aa5 91e0 0265 	LDS  R30,_tm
000aa7 e0f0      	LDI  R31,0
000aa8 93fa      	ST   -Y,R31
000aa9 93ea      	ST   -Y,R30
000aaa e7ac      	LDI  R26,LOW(_lcd_buf)
000aab e0b2      	LDI  R27,HIGH(_lcd_buf)
000aac 940c 080b 	JMP  _itoa
                 
                 ;OPTIMIZER ADDED SUBROUTINE, CALLED 9 TIMES, CODE SIZE REDUCTION:13 WORDS
                 SUBOPT_0x5:
000aae e7ac      	LDI  R26,LOW(_lcd_buf)
000aaf e0b2      	LDI  R27,HIGH(_lcd_buf)
000ab0 940c 09cc 	JMP  _lcd_puts
                 
                 ;OPTIMIZER ADDED SUBROUTINE, CALLED 2 TIMES, CODE SIZE REDUCTION:6 WORDS
                 SUBOPT_0x6:
000ab2 91e0 0264 	LDS  R30,_ts
000ab4 e0f0      	LDI  R31,0
000ab5 93fa      	ST   -Y,R31
000ab6 93ea      	ST   -Y,R30
000ab7 e7ac      	LDI  R26,LOW(_lcd_buf)
000ab8 e0b2      	LDI  R27,HIGH(_lcd_buf)
000ab9 940e 080b 	CALL _itoa
000abb cff2      	RJMP SUBOPT_0x5
                 
                 ;OPTIMIZER ADDED SUBROUTINE, CALLED 4 TIMES, CODE SIZE REDUCTION:6 WORDS
                 SUBOPT_0x7:
000abc e0ec      	LDI  R30,LOW(12)
000abd 93ea      	ST   -Y,R30
000abe e0a1      	LDI  R26,LOW(1)
000abf 940c 098d 	JMP  _lcd_gotoxy
                 
                 ;OPTIMIZER ADDED SUBROUTINE, CALLED 3 TIMES, CODE SIZE REDUCTION:37 WORDS
                 SUBOPT_0x8:
000ac1 2766      	CLR  R22
000ac2 2777      	CLR  R23
000ac3 940e 0cef 	CALL __CDF1
000ac5 01df      	MOVW R26,R30
000ac6 01cb      	MOVW R24,R22
                +
000ac7 e0e0     +LDI R30 , LOW ( 0x41200000 )
000ac8 e0f0     +LDI R31 , HIGH ( 0x41200000 )
000ac9 e260     +LDI R22 , BYTE3 ( 0x41200000 )
000aca e471     +LDI R23 , BYTE4 ( 0x41200000 )
                 	__GETD1N 0x41200000
000acb 940e 0dc7 	CALL __DIVF21
000acd 940e 0ea1 	CALL __PUTPARD1
000acf e0e1      	LDI  R30,LOW(1)
000ad0 93ea      	ST   -Y,R30
000ad1 e7ac      	LDI  R26,LOW(_lcd_buf)
000ad2 e0b2      	LDI  R27,HIGH(_lcd_buf)
000ad3 940e 0839 	CALL _ftoa
000ad5 9468      	SET
000ad6 f820      	BLD  R2,0
000ad7 9508      	RET
                 
                 ;OPTIMIZER ADDED SUBROUTINE, CALLED 3 TIMES, CODE SIZE REDUCTION:1 WORDS
                 SUBOPT_0x9:
000ad8 e0f0      	LDI  R31,0
000ad9 30e1      	CPI  R30,LOW(0x1)
000ada e0a0      	LDI  R26,HIGH(0x1)
000adb 07fa      	CPC  R31,R26
000adc 9508      	RET
                 
                 ;OPTIMIZER ADDED SUBROUTINE, CALLED 2 TIMES, CODE SIZE REDUCTION:2 WORDS
                 SUBOPT_0xA:
000add 940e 09cc 	CALL _lcd_puts
000adf e0e0      	LDI  R30,LOW(0)
000ae0 93ea      	ST   -Y,R30
000ae1 e0a1      	LDI  R26,LOW(1)
000ae2 940c 098d 	JMP  _lcd_gotoxy
                 
                 ;OPTIMIZER ADDED SUBROUTINE, CALLED 2 TIMES, CODE SIZE REDUCTION:3 WORDS
                 SUBOPT_0xB:
000ae4 940e 09cc 	CALL _lcd_puts
000ae6 eea8      	LDI  R26,LOW(1000)
000ae7 e0b3      	LDI  R27,HIGH(1000)
000ae8 940e 0c29 	CALL _delay_ms
000aea 940c 099e 	JMP  _lcd_clear
                 
                 ;OPTIMIZER ADDED SUBROUTINE, CALLED 5 TIMES, CODE SIZE REDUCTION:5 WORDS
                 SUBOPT_0xC:
000aec 93ea      	ST   -Y,R30
000aed e0a1      	LDI  R26,LOW(1)
000aee 940c 098d 	JMP  _lcd_gotoxy
                 
                 ;OPTIMIZER ADDED SUBROUTINE, CALLED 3 TIMES, CODE SIZE REDUCTION:7 WORDS
                 SUBOPT_0xD:
000af0 27ff      	CLR  R31
000af1 2766      	CLR  R22
000af2 2777      	CLR  R23
000af3 940e 0cef 	CALL __CDF1
000af5 940e 0e8d 	CALL __PUTDP1
000af7 9508      	RET
                 
                 ;OPTIMIZER ADDED SUBROUTINE, CALLED 2 TIMES, CODE SIZE REDUCTION:3 WORDS
                 SUBOPT_0xE:
000af8 91e0 0270 	LDS  R30,_copy
000afa 91f0 0271 	LDS  R31,_copy+1
000afc 9160 0272 	LDS  R22,_copy+2
000afe 9170 0273 	LDS  R23,_copy+3
000b00 9508      	RET
                 
                 ;OPTIMIZER ADDED SUBROUTINE, CALLED 2 TIMES, CODE SIZE REDUCTION:5 WORDS
                 SUBOPT_0xF:
000b01 940e 0d22 	CALL __SUBF12
000b03 93e0 0270 	STS  _copy,R30
000b05 93f0 0271 	STS  _copy+1,R31
000b07 9360 0272 	STS  _copy+2,R22
000b09 9370 0273 	STS  _copy+3,R23
000b0b 9508      	RET
                 
                 ;OPTIMIZER ADDED SUBROUTINE, CALLED 2 TIMES, CODE SIZE REDUCTION:33 WORDS
                 SUBOPT_0x10:
000b0c 91a0 0274 	LDS  R26,_wcnt_rem
000b0e 91b0 0275 	LDS  R27,_wcnt_rem+1
000b10 9180 0276 	LDS  R24,_wcnt_rem+2
000b12 9190 0277 	LDS  R25,_wcnt_rem+3
000b14 91e0 0278 	LDS  R30,_wcnt_c
000b16 91f0 0279 	LDS  R31,_wcnt_c+1
000b18 9160 027a 	LDS  R22,_wcnt_c+2
000b1a 9170 027b 	LDS  R23,_wcnt_c+3
000b1c 940e 0d22 	CALL __SUBF12
000b1e 01df      	MOVW R26,R30
000b1f 01cb      	MOVW R24,R22
000b20 91e0 0278 	LDS  R30,_wcnt_c
000b22 91f0 0279 	LDS  R31,_wcnt_c+1
000b24 9160 027a 	LDS  R22,_wcnt_c+2
000b26 9170 027b 	LDS  R23,_wcnt_c+3
000b28 940e 0dc7 	CALL __DIVF21
000b2a 91a0 0270 	LDS  R26,_copy
000b2c 91b0 0271 	LDS  R27,_copy+1
000b2e 9180 0272 	LDS  R24,_copy+2
000b30 9190 0273 	LDS  R25,_copy+3
000b32 9508      	RET
                 
                 ;OPTIMIZER ADDED SUBROUTINE, CALLED 2 TIMES, CODE SIZE REDUCTION:3 WORDS
                 SUBOPT_0x11:
000b33 93e0 0270 	STS  _copy,R30
000b35 93f0 0271 	STS  _copy+1,R31
000b37 9360 0272 	STS  _copy+2,R22
000b39 9370 0273 	STS  _copy+3,R23
000b3b 9508      	RET
                 
                 ;OPTIMIZER ADDED SUBROUTINE, CALLED 4 TIMES, CODE SIZE REDUCTION:15 WORDS
                 SUBOPT_0x12:
000b3c 91a0 0270 	LDS  R26,_copy
000b3e 91b0 0271 	LDS  R27,_copy+1
000b40 9180 0272 	LDS  R24,_copy+2
000b42 9190 0273 	LDS  R25,_copy+3
000b44 9508      	RET
                 
                 ;OPTIMIZER ADDED SUBROUTINE, CALLED 2 TIMES, CODE SIZE REDUCTION:1 WORDS
                 SUBOPT_0x13:
000b45 dff6      	RCALL SUBOPT_0x12
                +
000b46 e0e0     +LDI R30 , LOW ( 0x41200000 )
000b47 e0f0     +LDI R31 , HIGH ( 0x41200000 )
000b48 e260     +LDI R22 , BYTE3 ( 0x41200000 )
000b49 e471     +LDI R23 , BYTE4 ( 0x41200000 )
                 	__GETD1N 0x41200000
000b4a 9508      	RET
                 
                 ;OPTIMIZER ADDED SUBROUTINE, CALLED 3 TIMES, CODE SIZE REDUCTION:1 WORDS
                 SUBOPT_0x14:
000b4b 940e 09cc 	CALL _lcd_puts
000b4d cf47      	RJMP SUBOPT_0x1
                 
                 ;OPTIMIZER ADDED SUBROUTINE, CALLED 6 TIMES, CODE SIZE REDUCTION:7 WORDS
                 SUBOPT_0x15:
000b4e 91a0 0269 	LDS  R26,_adc_dataw
000b50 91b0 026a 	LDS  R27,_adc_dataw+1
000b52 9508      	RET
                 
                 ;OPTIMIZER ADDED SUBROUTINE, CALLED 4 TIMES, CODE SIZE REDUCTION:3 WORDS
                 SUBOPT_0x16:
000b53 91e0 0269 	LDS  R30,_adc_dataw
000b55 91f0 026a 	LDS  R31,_adc_dataw+1
000b57 9508      	RET
                 
                 ;OPTIMIZER ADDED SUBROUTINE, CALLED 2 TIMES, CODE SIZE REDUCTION:1 WORDS
                 SUBOPT_0x17:
000b58 dffa      	RCALL SUBOPT_0x16
000b59 93e0 026d 	STS  _adc_datawi,R30
000b5b 93f0 026e 	STS  _adc_datawi+1,R31
000b5d 9508      	RET
                 
                 ;OPTIMIZER ADDED SUBROUTINE, CALLED 8 TIMES, CODE SIZE REDUCTION:18 WORDS
                 SUBOPT_0x18:
000b5e 2de4      	MOV  R30,R4
000b5f e0f0      	LDI  R31,0
000b60 56e0      	SUBI R30,LOW(-_rx_buffer)
000b61 4ffd      	SBCI R31,HIGH(-_rx_buffer)
000b62 81a0      	LD   R26,Z
000b63 9508      	RET
                 
                 ;OPTIMIZER ADDED SUBROUTINE, CALLED 4 TIMES, CODE SIZE REDUCTION:6 WORDS
                 SUBOPT_0x19:
000b64 2de4      	MOV  R30,R4
000b65 e0f0      	LDI  R31,0
                +
000b66 55ed     +SUBI R30 , LOW ( - _rx_buffer - ( 3 ) )
000b67 4ffd     +SBCI R31 , HIGH ( - _rx_buffer - ( 3 ) )
                 	__ADDW1MN _rx_buffer,3
000b68 81a0      	LD   R26,Z
000b69 9508      	RET
                 
                 ;OPTIMIZER ADDED SUBROUTINE, CALLED 4 TIMES, CODE SIZE REDUCTION:6 WORDS
                 SUBOPT_0x1A:
000b6a 2de4      	MOV  R30,R4
000b6b e0f0      	LDI  R31,0
                +
000b6c 55ec     +SUBI R30 , LOW ( - _rx_buffer - ( 4 ) )
000b6d 4ffd     +SBCI R31 , HIGH ( - _rx_buffer - ( 4 ) )
                 	__ADDW1MN _rx_buffer,4
000b6e 81a0      	LD   R26,Z
000b6f 9508      	RET
                 
                 ;OPTIMIZER ADDED SUBROUTINE, CALLED 4 TIMES, CODE SIZE REDUCTION:6 WORDS
                 SUBOPT_0x1B:
000b70 2de4      	MOV  R30,R4
000b71 e0f0      	LDI  R31,0
                +
000b72 55eb     +SUBI R30 , LOW ( - _rx_buffer - ( 5 ) )
000b73 4ffd     +SBCI R31 , HIGH ( - _rx_buffer - ( 5 ) )
                 	__ADDW1MN _rx_buffer,5
000b74 81a0      	LD   R26,Z
000b75 9508      	RET
                 
                 ;OPTIMIZER ADDED SUBROUTINE, CALLED 3 TIMES, CODE SIZE REDUCTION:9 WORDS
                 SUBOPT_0x1C:
000b76 81e0      	LD   R30,Z
000b77 53e0      	SUBI R30,LOW(48)
000b78 e0aa      	LDI  R26,LOW(10)
000b79 02ea      	MULS R30,R26
000b7a 01f0      	MOVW R30,R0
000b7b 2fae      	MOV  R26,R30
000b7c 2de4      	MOV  R30,R4
000b7d e0f0      	LDI  R31,0
000b7e 9508      	RET
                 
                 ;OPTIMIZER ADDED SUBROUTINE, CALLED 3 TIMES, CODE SIZE REDUCTION:1 WORDS
                 SUBOPT_0x1D:
000b7f 81ee      	LDD  R30,Y+6
000b80 81ff      	LDD  R31,Y+6+1
000b81 93fa      	ST   -Y,R31
000b82 93ea      	ST   -Y,R30
000b83 9508      	RET
                 
                 ;OPTIMIZER ADDED SUBROUTINE, CALLED 5 TIMES, CODE SIZE REDUCTION:5 WORDS
                 SUBOPT_0x1E:
                +
000b84 87e9     +STD Y + 9 , R30
000b85 87fa     +STD Y + 9 + 1 , R31
000b86 876b     +STD Y + 9 + 2 , R22
000b87 877c     +STD Y + 9 + 3 , R23
                 	__PUTD1S 9
000b88 9508      	RET
                 
                 ;OPTIMIZER ADDED SUBROUTINE, CALLED 5 TIMES, CODE SIZE REDUCTION:13 WORDS
                 SUBOPT_0x1F:
000b89 81ae      	LDD  R26,Y+6
000b8a 81bf      	LDD  R27,Y+6+1
000b8b 9611      	ADIW R26,1
000b8c 83ae      	STD  Y+6,R26
000b8d 83bf      	STD  Y+6+1,R27
000b8e 9711      	SBIW R26,1
000b8f 9508      	RET
                 
                 ;OPTIMIZER ADDED SUBROUTINE, CALLED 4 TIMES, CODE SIZE REDUCTION:3 WORDS
                 SUBOPT_0x20:
                +
000b90 81aa     +LDD R26 , Y + 2
000b91 81bb     +LDD R27 , Y + 2 + 1
000b92 818c     +LDD R24 , Y + 2 + 2
000b93 819d     +LDD R25 , Y + 2 + 3
                 	__GETD2S 2
000b94 9508      	RET
                 
                 ;OPTIMIZER ADDED SUBROUTINE, CALLED 2 TIMES, CODE SIZE REDUCTION:1 WORDS
                 SUBOPT_0x21:
                +
000b95 eced     +LDI R30 , LOW ( 0x3DCCCCCD )
000b96 ecfc     +LDI R31 , HIGH ( 0x3DCCCCCD )
000b97 ec6c     +LDI R22 , BYTE3 ( 0x3DCCCCCD )
000b98 e37d     +LDI R23 , BYTE4 ( 0x3DCCCCCD )
                 	__GETD1N 0x3DCCCCCD
000b99 940e 0d79 	CALL __MULF12
000b9b 9508      	RET
                 
                 ;OPTIMIZER ADDED SUBROUTINE, CALLED 4 TIMES, CODE SIZE REDUCTION:3 WORDS
                 SUBOPT_0x22:
                +
000b9c 83ea     +STD Y + 2 , R30
000b9d 83fb     +STD Y + 2 + 1 , R31
000b9e 836c     +STD Y + 2 + 2 , R22
000b9f 837d     +STD Y + 2 + 3 , R23
                 	__PUTD1S 2
000ba0 9508      	RET
                 
                 ;OPTIMIZER ADDED SUBROUTINE, CALLED 3 TIMES, CODE SIZE REDUCTION:9 WORDS
                 SUBOPT_0x23:
                +
000ba1 81ea     +LDD R30 , Y + 2
000ba2 81fb     +LDD R31 , Y + 2 + 1
000ba3 816c     +LDD R22 , Y + 2 + 2
000ba4 817d     +LDD R23 , Y + 2 + 3
                 	__GETD1S 2
                +
000ba5 85a9     +LDD R26 , Y + 9
000ba6 85ba     +LDD R27 , Y + 9 + 1
000ba7 858b     +LDD R24 , Y + 9 + 2
000ba8 859c     +LDD R25 , Y + 9 + 3
                 	__GETD2S 9
000ba9 9508      	RET
                 
                 ;OPTIMIZER ADDED SUBROUTINE, CALLED 2 TIMES, CODE SIZE REDUCTION:1 WORDS
                 SUBOPT_0x24:
                +
000baa e0e0     +LDI R30 , LOW ( 0x41200000 )
000bab e0f0     +LDI R31 , HIGH ( 0x41200000 )
000bac e260     +LDI R22 , BYTE3 ( 0x41200000 )
000bad e471     +LDI R23 , BYTE4 ( 0x41200000 )
                 	__GETD1N 0x41200000
000bae 940e 0d79 	CALL __MULF12
000bb0 9508      	RET
                 
                 ;OPTIMIZER ADDED SUBROUTINE, CALLED 3 TIMES, CODE SIZE REDUCTION:1 WORDS
                 SUBOPT_0x25:
                +
000bb1 85a9     +LDD R26 , Y + 9
000bb2 85ba     +LDD R27 , Y + 9 + 1
000bb3 858b     +LDD R24 , Y + 9 + 2
000bb4 859c     +LDD R25 , Y + 9 + 3
                 	__GETD2S 9
000bb5 9508      	RET
                 
                 ;OPTIMIZER ADDED SUBROUTINE, CALLED 2 TIMES, CODE SIZE REDUCTION:1 WORDS
                 SUBOPT_0x26:
000bb6 940e 0eab 	CALL __SWAPD12
000bb8 940e 0d22 	CALL __SUBF12
000bba cfc9      	RJMP SUBOPT_0x1E
                 
                 ;OPTIMIZER ADDED SUBROUTINE, CALLED 3 TIMES, CODE SIZE REDUCTION:3 WORDS
                 SUBOPT_0x27:
000bbb 940e 0bdd 	CALL _i2c_start
000bbd eda0      	LDI  R26,LOW(208)
000bbe 940c 0c11 	JMP  _i2c_write
                 
                 ;OPTIMIZER ADDED SUBROUTINE, CALLED 3 TIMES, CODE SIZE REDUCTION:1 WORDS
                 SUBOPT_0x28:
000bc0 940e 0c11 	CALL _i2c_write
000bc2 940c 0bec 	JMP  _i2c_stop
                 
                 ;OPTIMIZER ADDED SUBROUTINE, CALLED 2 TIMES, CODE SIZE REDUCTION:1 WORDS
                 SUBOPT_0x29:
000bc4 e0a1      	LDI  R26,LOW(1)
000bc5 940e 0bf6 	CALL _i2c_read
000bc7 2fae      	MOV  R26,R30
000bc8 940c 0a78 	JMP  _bcd2bin
                 
                 ;OPTIMIZER ADDED SUBROUTINE, CALLED 2 TIMES, CODE SIZE REDUCTION:1 WORDS
                 SUBOPT_0x2A:
000bca 940e 0981 	CALL __lcd_write_data
000bcc e0a3      	LDI  R26,LOW(3)
000bcd e0b0      	LDI  R27,0
000bce 940c 0c29 	JMP  _delay_ms
                 
                 ;OPTIMIZER ADDED SUBROUTINE, CALLED 3 TIMES, CODE SIZE REDUCTION:7 WORDS
                 SUBOPT_0x2B:
000bd0 e3a0      	LDI  R26,LOW(48)
000bd1 940e 095b 	CALL __lcd_write_nibble_G103
                +
000bd3 ec88     +LDI R24 , LOW ( 200 )
000bd4 e090     +LDI R25 , HIGH ( 200 )
                +__DELAY_USW_LOOP :
000bd5 9701     +SBIW R24 , 1
000bd6 f7f1     +BRNE __DELAY_USW_LOOP
                 	__DELAY_USW 200
000bd7 9508      	RET
                 
                 
                 	.CSEG
                 	.equ __sda_bit=7
                 	.equ __scl_bit=3
                 	.equ __i2c_port=0x12 ;PORTD
                 	.equ __i2c_dir=__i2c_port-1
                 	.equ __i2c_pin=__i2c_port-2
                 
                 _i2c_init:
000bd8 9893      	cbi  __i2c_port,__scl_bit
000bd9 9897      	cbi  __i2c_port,__sda_bit
000bda 9a8b      	sbi  __i2c_dir,__scl_bit
000bdb 988f      	cbi  __i2c_dir,__sda_bit
000bdc c015      	rjmp __i2c_delay2
                 _i2c_start:
000bdd 988f      	cbi  __i2c_dir,__sda_bit
000bde 988b      	cbi  __i2c_dir,__scl_bit
000bdf 27ee      	clr  r30
000be0 0000      	nop
000be1 9b87      	sbis __i2c_pin,__sda_bit
000be2 9508      	ret
000be3 9b83      	sbis __i2c_pin,__scl_bit
000be4 9508      	ret
000be5 d004      	rcall __i2c_delay1
000be6 9a8f      	sbi  __i2c_dir,__sda_bit
000be7 d002      	rcall __i2c_delay1
000be8 9a8b      	sbi  __i2c_dir,__scl_bit
000be9 e0e1      	ldi  r30,1
                 __i2c_delay1:
000bea e06d      	ldi  r22,13
000beb c007      	rjmp __i2c_delay2l
                 _i2c_stop:
000bec 9a8f      	sbi  __i2c_dir,__sda_bit
000bed 9a8b      	sbi  __i2c_dir,__scl_bit
000bee d003      	rcall __i2c_delay2
000bef 988b      	cbi  __i2c_dir,__scl_bit
000bf0 dff9      	rcall __i2c_delay1
000bf1 988f      	cbi  __i2c_dir,__sda_bit
                 __i2c_delay2:
000bf2 e16b      	ldi  r22,27
                 __i2c_delay2l:
000bf3 956a      	dec  r22
000bf4 f7f1      	brne __i2c_delay2l
000bf5 9508      	ret
                 _i2c_read:
000bf6 e078      	ldi  r23,8
                 __i2c_read0:
000bf7 988b      	cbi  __i2c_dir,__scl_bit
000bf8 dff1      	rcall __i2c_delay1
                 __i2c_read3:
000bf9 9b83      	sbis __i2c_pin,__scl_bit
000bfa cffe      	rjmp __i2c_read3
000bfb dfee      	rcall __i2c_delay1
000bfc 9488      	clc
000bfd 9987      	sbic __i2c_pin,__sda_bit
000bfe 9408      	sec
000bff 9a8b      	sbi  __i2c_dir,__scl_bit
000c00 dff1      	rcall __i2c_delay2
000c01 1fee      	rol  r30
000c02 957a      	dec  r23
000c03 f799      	brne __i2c_read0
000c04 2f7a      	mov  r23,r26
000c05 2377      	tst  r23
000c06 f411      	brne __i2c_read1
000c07 988f      	cbi  __i2c_dir,__sda_bit
000c08 c001      	rjmp __i2c_read2
                 __i2c_read1:
000c09 9a8f      	sbi  __i2c_dir,__sda_bit
                 __i2c_read2:
000c0a dfdf      	rcall __i2c_delay1
000c0b 988b      	cbi  __i2c_dir,__scl_bit
000c0c dfe5      	rcall __i2c_delay2
000c0d 9a8b      	sbi  __i2c_dir,__scl_bit
000c0e dfdb      	rcall __i2c_delay1
000c0f 988f      	cbi  __i2c_dir,__sda_bit
000c10 cfd9      	rjmp __i2c_delay1
                 
                 _i2c_write:
000c11 e078      	ldi  r23,8
                 __i2c_write0:
000c12 0faa      	lsl  r26
000c13 f410      	brcc __i2c_write1
000c14 988f      	cbi  __i2c_dir,__sda_bit
000c15 c001      	rjmp __i2c_write2
                 __i2c_write1:
000c16 9a8f      	sbi  __i2c_dir,__sda_bit
                 __i2c_write2:
000c17 dfda      	rcall __i2c_delay2
000c18 988b      	cbi  __i2c_dir,__scl_bit
000c19 dfd0      	rcall __i2c_delay1
                 __i2c_write3:
000c1a 9b83      	sbis __i2c_pin,__scl_bit
000c1b cffe      	rjmp __i2c_write3
000c1c dfcd      	rcall __i2c_delay1
000c1d 9a8b      	sbi  __i2c_dir,__scl_bit
000c1e 957a      	dec  r23
000c1f f791      	brne __i2c_write0
000c20 988f      	cbi  __i2c_dir,__sda_bit
000c21 dfc8      	rcall __i2c_delay1
000c22 988b      	cbi  __i2c_dir,__scl_bit
000c23 dfce      	rcall __i2c_delay2
000c24 e0e1      	ldi  r30,1
000c25 9987      	sbic __i2c_pin,__sda_bit
000c26 27ee      	clr  r30
000c27 9a8b      	sbi  __i2c_dir,__scl_bit
000c28 cfc1      	rjmp __i2c_delay1
                 
                 _delay_ms:
000c29 9610      	adiw r26,0
000c2a f039      	breq __delay_ms1
                 __delay_ms0:
                +
000c2b ed80     +LDI R24 , LOW ( 0x7D0 )
000c2c e097     +LDI R25 , HIGH ( 0x7D0 )
                +__DELAY_USW_LOOP :
000c2d 9701     +SBIW R24 , 1
000c2e f7f1     +BRNE __DELAY_USW_LOOP
                 	__DELAY_USW 0x7D0
000c2f 95a8      	wdr
000c30 9711      	sbiw r26,1
000c31 f7c9      	brne __delay_ms0
                 __delay_ms1:
000c32 9508      	ret
                 
                 	.equ __w1_port=0x12
                 	.equ __w1_bit=0x05
                 
                 _w1_init:
000c33 27ee      	clr  r30
000c34 9895      	cbi  __w1_port,__w1_bit
000c35 9a8d      	sbi  __w1_port-1,__w1_bit
                +
000c36 ec80     +LDI R24 , LOW ( 0x3C0 )
000c37 e093     +LDI R25 , HIGH ( 0x3C0 )
                +__DELAY_USW_LOOP :
000c38 9701     +SBIW R24 , 1
000c39 f7f1     +BRNE __DELAY_USW_LOOP
                 	__DELAY_USW 0x3C0
000c3a 988d      	cbi  __w1_port-1,__w1_bit
                +
000c3b e285     +LDI R24 , LOW ( 0x25 )
                +__DELAY_USB_LOOP :
000c3c 958a     +DEC R24
000c3d f7f1     +BRNE __DELAY_USB_LOOP
                 	__DELAY_USB 0x25
000c3e 9b85      	sbis __w1_port-2,__w1_bit
000c3f 9508      	ret
                +
000c40 ec8b     +LDI R24 , LOW ( 0xCB )
                +__DELAY_USB_LOOP :
000c41 958a     +DEC R24
000c42 f7f1     +BRNE __DELAY_USB_LOOP
                 	__DELAY_USB 0xCB
000c43 9b85      	sbis __w1_port-2,__w1_bit
000c44 e0e1      	ldi  r30,1
                +
000c45 e08c     +LDI R24 , LOW ( 0x30C )
000c46 e093     +LDI R25 , HIGH ( 0x30C )
                +__DELAY_USW_LOOP :
000c47 9701     +SBIW R24 , 1
000c48 f7f1     +BRNE __DELAY_USW_LOOP
                 	__DELAY_USW 0x30C
000c49 9508      	ret
                 
                 __w1_read_bit:
000c4a 9a8d      	sbi  __w1_port-1,__w1_bit
                +
000c4b e085     +LDI R24 , LOW ( 0x5 )
                +__DELAY_USB_LOOP :
000c4c 958a     +DEC R24
000c4d f7f1     +BRNE __DELAY_USB_LOOP
                 	__DELAY_USB 0x5
000c4e 988d      	cbi  __w1_port-1,__w1_bit
                +
000c4f e18d     +LDI R24 , LOW ( 0x1D )
                +__DELAY_USB_LOOP :
000c50 958a     +DEC R24
000c51 f7f1     +BRNE __DELAY_USB_LOOP
                 	__DELAY_USB 0x1D
000c52 9488      	clc
000c53 9985      	sbic __w1_port-2,__w1_bit
000c54 9408      	sec
000c55 95e7      	ror  r30
                +
000c56 ed85     +LDI R24 , LOW ( 0xD5 )
                +__DELAY_USB_LOOP :
000c57 958a     +DEC R24
000c58 f7f1     +BRNE __DELAY_USB_LOOP
                 	__DELAY_USB 0xD5
000c59 9508      	ret
                 
                 __w1_write_bit:
000c5a 94e8      	clt
000c5b 9a8d      	sbi  __w1_port-1,__w1_bit
                +
000c5c e085     +LDI R24 , LOW ( 0x5 )
                +__DELAY_USB_LOOP :
000c5d 958a     +DEC R24
000c5e f7f1     +BRNE __DELAY_USB_LOOP
                 	__DELAY_USB 0x5
000c5f fd70      	sbrc r23,0
000c60 988d      	cbi  __w1_port-1,__w1_bit
                +
000c61 e283     +LDI R24 , LOW ( 0x23 )
                +__DELAY_USB_LOOP :
000c62 958a     +DEC R24
000c63 f7f1     +BRNE __DELAY_USB_LOOP
                 	__DELAY_USB 0x23
000c64 9985      	sbic __w1_port-2,__w1_bit
000c65 c003      	rjmp __w1_write_bit0
000c66 ff70      	sbrs r23,0
000c67 c003      	rjmp __w1_write_bit1
000c68 9508      	ret
                 __w1_write_bit0:
000c69 ff70      	sbrs r23,0
000c6a 9508      	ret
                 __w1_write_bit1:
                +
000c6b ec88     +LDI R24 , LOW ( 0xC8 )
                +__DELAY_USB_LOOP :
000c6c 958a     +DEC R24
000c6d f7f1     +BRNE __DELAY_USB_LOOP
                 	__DELAY_USB 0xC8
000c6e 988d      	cbi  __w1_port-1,__w1_bit
                +
000c6f e08d     +LDI R24 , LOW ( 0xD )
                +__DELAY_USB_LOOP :
000c70 958a     +DEC R24
000c71 f7f1     +BRNE __DELAY_USB_LOOP
                 	__DELAY_USB 0xD
000c72 9468      	set
000c73 9508      	ret
                 
                 _w1_read:
000c74 e068      	ldi  r22,8
                 	__w1_read0:
000c75 dfd4      	rcall __w1_read_bit
000c76 956a      	dec  r22
000c77 f7e9      	brne __w1_read0
000c78 9508      	ret
                 
                 _w1_write:
000c79 2f7a      	mov  r23,r26
000c7a e068      	ldi  r22,8
000c7b 27ee      	clr  r30
                 __w1_write0:
000c7c dfdd      	rcall __w1_write_bit
000c7d f426      	brtc __w1_write1
000c7e 9577      	ror  r23
000c7f 956a      	dec  r22
000c80 f7d9      	brne __w1_write0
000c81 95e3      	inc  r30
                 __w1_write1:
000c82 9508      	ret
                 
                 __ANEGF1:
000c83 9730      	SBIW R30,0
000c84 4060      	SBCI R22,0
000c85 4070      	SBCI R23,0
000c86 f009      	BREQ __ANEGF10
000c87 5870      	SUBI R23,0x80
                 __ANEGF10:
000c88 9508      	RET
                 
                 __ROUND_REPACK:
000c89 2355      	TST  R21
000c8a f442      	BRPL __REPACK
000c8b 3850      	CPI  R21,0x80
000c8c f411      	BRNE __ROUND_REPACK0
000c8d ffe0      	SBRS R30,0
000c8e c004      	RJMP __REPACK
                 __ROUND_REPACK0:
000c8f 9631      	ADIW R30,1
000c90 1f69      	ADC  R22,R25
000c91 1f79      	ADC  R23,R25
000c92 f06b      	BRVS __REPACK1
                 
                 __REPACK:
000c93 e850      	LDI  R21,0x80
000c94 2757      	EOR  R21,R23
000c95 f411      	BRNE __REPACK0
000c96 935f      	PUSH R21
000c97 c0cf      	RJMP __ZERORES
                 __REPACK0:
000c98 3f5f      	CPI  R21,0xFF
000c99 f031      	BREQ __REPACK1
000c9a 0f66      	LSL  R22
000c9b 0c00      	LSL  R0
000c9c 9557      	ROR  R21
000c9d 9567      	ROR  R22
000c9e 2f75      	MOV  R23,R21
000c9f 9508      	RET
                 __REPACK1:
000ca0 935f      	PUSH R21
000ca1 2000      	TST  R0
000ca2 f00a      	BRMI __REPACK2
000ca3 c0cf      	RJMP __MAXRES
                 __REPACK2:
000ca4 c0c8      	RJMP __MINRES
                 
                 __UNPACK:
000ca5 e850      	LDI  R21,0x80
000ca6 2e19      	MOV  R1,R25
000ca7 2215      	AND  R1,R21
000ca8 0f88      	LSL  R24
000ca9 1f99      	ROL  R25
000caa 2795      	EOR  R25,R21
000cab 0f55      	LSL  R21
000cac 9587      	ROR  R24
                 
                 __UNPACK1:
000cad e850      	LDI  R21,0x80
000cae 2e07      	MOV  R0,R23
000caf 2205      	AND  R0,R21
000cb0 0f66      	LSL  R22
000cb1 1f77      	ROL  R23
000cb2 2775      	EOR  R23,R21
000cb3 0f55      	LSL  R21
000cb4 9567      	ROR  R22
000cb5 9508      	RET
                 
                 __CFD1U:
000cb6 9468      	SET
000cb7 c001      	RJMP __CFD1U0
                 __CFD1:
000cb8 94e8      	CLT
                 __CFD1U0:
000cb9 935f      	PUSH R21
000cba dff2      	RCALL __UNPACK1
000cbb 3870      	CPI  R23,0x80
000cbc f018      	BRLO __CFD10
000cbd 3f7f      	CPI  R23,0xFF
000cbe f408      	BRCC __CFD10
000cbf c0a7      	RJMP __ZERORES
                 __CFD10:
000cc0 e156      	LDI  R21,22
000cc1 1b57      	SUB  R21,R23
000cc2 f4aa      	BRPL __CFD11
000cc3 9551      	NEG  R21
000cc4 3058      	CPI  R21,8
000cc5 f40e      	BRTC __CFD19
000cc6 3059      	CPI  R21,9
                 __CFD19:
000cc7 f030      	BRLO __CFD17
000cc8 efef      	SER  R30
000cc9 efff      	SER  R31
000cca ef6f      	SER  R22
000ccb e77f      	LDI  R23,0x7F
000ccc f977      	BLD  R23,7
000ccd c01a      	RJMP __CFD15
                 __CFD17:
000cce 2777      	CLR  R23
000ccf 2355      	TST  R21
000cd0 f0b9      	BREQ __CFD15
                 __CFD18:
000cd1 0fee      	LSL  R30
000cd2 1fff      	ROL  R31
000cd3 1f66      	ROL  R22
000cd4 1f77      	ROL  R23
000cd5 955a      	DEC  R21
000cd6 f7d1      	BRNE __CFD18
000cd7 c010      	RJMP __CFD15
                 __CFD11:
000cd8 2777      	CLR  R23
                 __CFD12:
000cd9 3058      	CPI  R21,8
000cda f028      	BRLO __CFD13
000cdb 2fef      	MOV  R30,R31
000cdc 2ff6      	MOV  R31,R22
000cdd 2f67      	MOV  R22,R23
000cde 5058      	SUBI R21,8
000cdf cff9      	RJMP __CFD12
                 __CFD13:
000ce0 2355      	TST  R21
000ce1 f031      	BREQ __CFD15
                 __CFD14:
000ce2 9576      	LSR  R23
000ce3 9567      	ROR  R22
000ce4 95f7      	ROR  R31
000ce5 95e7      	ROR  R30
000ce6 955a      	DEC  R21
000ce7 f7d1      	BRNE __CFD14
                 __CFD15:
000ce8 2000      	TST  R0
000ce9 f40a      	BRPL __CFD16
000cea d145      	RCALL __ANEGD1
                 __CFD16:
000ceb 915f      	POP  R21
000cec 9508      	RET
                 
                 __CDF1U:
000ced 9468      	SET
000cee c001      	RJMP __CDF1U0
                 __CDF1:
000cef 94e8      	CLT
                 __CDF1U0:
000cf0 9730      	SBIW R30,0
000cf1 4060      	SBCI R22,0
000cf2 4070      	SBCI R23,0
000cf3 f0b1      	BREQ __CDF10
000cf4 2400      	CLR  R0
000cf5 f026      	BRTS __CDF11
000cf6 2377      	TST  R23
000cf7 f412      	BRPL __CDF11
000cf8 9400      	COM  R0
000cf9 d136      	RCALL __ANEGD1
                 __CDF11:
000cfa 2e17      	MOV  R1,R23
000cfb e17e      	LDI  R23,30
000cfc 2011      	TST  R1
                 __CDF12:
000cfd f032      	BRMI __CDF13
000cfe 957a      	DEC  R23
000cff 0fee      	LSL  R30
000d00 1fff      	ROL  R31
000d01 1f66      	ROL  R22
000d02 1c11      	ROL  R1
000d03 cff9      	RJMP __CDF12
                 __CDF13:
000d04 2fef      	MOV  R30,R31
000d05 2ff6      	MOV  R31,R22
000d06 2d61      	MOV  R22,R1
000d07 935f      	PUSH R21
000d08 df8a      	RCALL __REPACK
000d09 915f      	POP  R21
                 __CDF10:
000d0a 9508      	RET
                 
                 __SWAPACC:
000d0b 934f      	PUSH R20
000d0c 01af      	MOVW R20,R30
000d0d 01fd      	MOVW R30,R26
000d0e 01da      	MOVW R26,R20
000d0f 01ab      	MOVW R20,R22
000d10 01bc      	MOVW R22,R24
000d11 01ca      	MOVW R24,R20
000d12 2d40      	MOV  R20,R0
000d13 2c01      	MOV  R0,R1
000d14 2e14      	MOV  R1,R20
000d15 914f      	POP  R20
000d16 9508      	RET
                 
                 __UADD12:
000d17 0fea      	ADD  R30,R26
000d18 1ffb      	ADC  R31,R27
000d19 1f68      	ADC  R22,R24
000d1a 9508      	RET
                 
                 __NEGMAN1:
000d1b 95e0      	COM  R30
000d1c 95f0      	COM  R31
000d1d 9560      	COM  R22
000d1e 5fef      	SUBI R30,-1
000d1f 4fff      	SBCI R31,-1
000d20 4f6f      	SBCI R22,-1
000d21 9508      	RET
                 
                 __SUBF12:
000d22 935f      	PUSH R21
000d23 df81      	RCALL __UNPACK
000d24 3890      	CPI  R25,0x80
000d25 f171      	BREQ __ADDF129
000d26 e850      	LDI  R21,0x80
000d27 2615      	EOR  R1,R21
                 
000d28 c004      	RJMP __ADDF120
                 
                 __ADDF12:
000d29 935f      	PUSH R21
000d2a df7a      	RCALL __UNPACK
000d2b 3890      	CPI  R25,0x80
000d2c f139      	BREQ __ADDF129
                 
                 __ADDF120:
000d2d 3870      	CPI  R23,0x80
000d2e f121      	BREQ __ADDF128
                 __ADDF121:
000d2f 2f57      	MOV  R21,R23
000d30 1b59      	SUB  R21,R25
000d31 f12b      	BRVS __ADDF1211
000d32 f412      	BRPL __ADDF122
000d33 dfd7      	RCALL __SWAPACC
000d34 cffa      	RJMP __ADDF121
                 __ADDF122:
000d35 3158      	CPI  R21,24
000d36 f018      	BRLO __ADDF123
000d37 27aa      	CLR  R26
000d38 27bb      	CLR  R27
000d39 2788      	CLR  R24
                 __ADDF123:
000d3a 3058      	CPI  R21,8
000d3b f028      	BRLO __ADDF124
000d3c 2fab      	MOV  R26,R27
000d3d 2fb8      	MOV  R27,R24
000d3e 2788      	CLR  R24
000d3f 5058      	SUBI R21,8
000d40 cff9      	RJMP __ADDF123
                 __ADDF124:
000d41 2355      	TST  R21
000d42 f029      	BREQ __ADDF126
                 __ADDF125:
000d43 9586      	LSR  R24
000d44 95b7      	ROR  R27
000d45 95a7      	ROR  R26
000d46 955a      	DEC  R21
000d47 f7d9      	BRNE __ADDF125
                 __ADDF126:
000d48 2d50      	MOV  R21,R0
000d49 2551      	EOR  R21,R1
000d4a f072      	BRMI __ADDF127
000d4b dfcb      	RCALL __UADD12
000d4c f438      	BRCC __ADDF129
000d4d 9567      	ROR  R22
000d4e 95f7      	ROR  R31
000d4f 95e7      	ROR  R30
000d50 9573      	INC  R23
000d51 f413      	BRVC __ADDF129
000d52 c020      	RJMP __MAXRES
                 __ADDF128:
000d53 dfb7      	RCALL __SWAPACC
                 __ADDF129:
000d54 df3e      	RCALL __REPACK
000d55 915f      	POP  R21
000d56 9508      	RET
                 __ADDF1211:
000d57 f7d8      	BRCC __ADDF128
000d58 cffb      	RJMP __ADDF129
                 __ADDF127:
000d59 1bea      	SUB  R30,R26
000d5a 0bfb      	SBC  R31,R27
000d5b 0b68      	SBC  R22,R24
000d5c f051      	BREQ __ZERORES
000d5d f410      	BRCC __ADDF1210
000d5e 9400      	COM  R0
000d5f dfbb      	RCALL __NEGMAN1
                 __ADDF1210:
000d60 2366      	TST  R22
000d61 f392      	BRMI __ADDF129
000d62 0fee      	LSL  R30
000d63 1fff      	ROL  R31
000d64 1f66      	ROL  R22
000d65 957a      	DEC  R23
000d66 f7cb      	BRVC __ADDF1210
                 
                 __ZERORES:
000d67 27ee      	CLR  R30
000d68 27ff      	CLR  R31
000d69 2766      	CLR  R22
000d6a 2777      	CLR  R23
000d6b 915f      	POP  R21
000d6c 9508      	RET
                 
                 __MINRES:
000d6d efef      	SER  R30
000d6e efff      	SER  R31
000d6f e76f      	LDI  R22,0x7F
000d70 ef7f      	SER  R23
000d71 915f      	POP  R21
000d72 9508      	RET
                 
                 __MAXRES:
000d73 efef      	SER  R30
000d74 efff      	SER  R31
000d75 e76f      	LDI  R22,0x7F
000d76 e77f      	LDI  R23,0x7F
000d77 915f      	POP  R21
000d78 9508      	RET
                 
                 __MULF12:
000d79 935f      	PUSH R21
000d7a df2a      	RCALL __UNPACK
000d7b 3870      	CPI  R23,0x80
000d7c f351      	BREQ __ZERORES
000d7d 3890      	CPI  R25,0x80
000d7e f341      	BREQ __ZERORES
000d7f 2401      	EOR  R0,R1
000d80 9408      	SEC
000d81 1f79      	ADC  R23,R25
000d82 f423      	BRVC __MULF124
000d83 f31c      	BRLT __ZERORES
                 __MULF125:
000d84 2000      	TST  R0
000d85 f33a      	BRMI __MINRES
000d86 cfec      	RJMP __MAXRES
                 __MULF124:
000d87 920f      	PUSH R0
000d88 931f      	PUSH R17
000d89 932f      	PUSH R18
000d8a 933f      	PUSH R19
000d8b 934f      	PUSH R20
000d8c 2711      	CLR  R17
000d8d 2722      	CLR  R18
000d8e 2799      	CLR  R25
000d8f 9f68      	MUL  R22,R24
000d90 01a0      	MOVW R20,R0
000d91 9f8f      	MUL  R24,R31
000d92 2d30      	MOV  R19,R0
000d93 0d41      	ADD  R20,R1
000d94 1f59      	ADC  R21,R25
000d95 9f6b      	MUL  R22,R27
000d96 0d30      	ADD  R19,R0
000d97 1d41      	ADC  R20,R1
000d98 1f59      	ADC  R21,R25
000d99 9f8e      	MUL  R24,R30
000d9a d027      	RCALL __MULF126
000d9b 9fbf      	MUL  R27,R31
000d9c d025      	RCALL __MULF126
000d9d 9f6a      	MUL  R22,R26
000d9e d023      	RCALL __MULF126
000d9f 9fbe      	MUL  R27,R30
000da0 d01d      	RCALL __MULF127
000da1 9faf      	MUL  R26,R31
000da2 d01b      	RCALL __MULF127
000da3 9fae      	MUL  R26,R30
000da4 0d11      	ADD  R17,R1
000da5 1f29      	ADC  R18,R25
000da6 1f39      	ADC  R19,R25
000da7 1f49      	ADC  R20,R25
000da8 1f59      	ADC  R21,R25
000da9 2fe3      	MOV  R30,R19
000daa 2ff4      	MOV  R31,R20
000dab 2f65      	MOV  R22,R21
000dac 2f52      	MOV  R21,R18
000dad 914f      	POP  R20
000dae 913f      	POP  R19
000daf 912f      	POP  R18
000db0 911f      	POP  R17
000db1 900f      	POP  R0
000db2 2366      	TST  R22
000db3 f02a      	BRMI __MULF122
000db4 0f55      	LSL  R21
000db5 1fee      	ROL  R30
000db6 1fff      	ROL  R31
000db7 1f66      	ROL  R22
000db8 c002      	RJMP __MULF123
                 __MULF122:
000db9 9573      	INC  R23
000dba f24b      	BRVS __MULF125
                 __MULF123:
000dbb decd      	RCALL __ROUND_REPACK
000dbc 915f      	POP  R21
000dbd 9508      	RET
                 
                 __MULF127:
000dbe 0d10      	ADD  R17,R0
000dbf 1d21      	ADC  R18,R1
000dc0 1f39      	ADC  R19,R25
000dc1 c002      	RJMP __MULF128
                 __MULF126:
000dc2 0d20      	ADD  R18,R0
000dc3 1d31      	ADC  R19,R1
                 __MULF128:
000dc4 1f49      	ADC  R20,R25
000dc5 1f59      	ADC  R21,R25
000dc6 9508      	RET
                 
                 __DIVF21:
000dc7 935f      	PUSH R21
000dc8 dedc      	RCALL __UNPACK
000dc9 3870      	CPI  R23,0x80
000dca f421      	BRNE __DIVF210
000dcb 2011      	TST  R1
                 __DIVF211:
000dcc f40a      	BRPL __DIVF219
000dcd cf9f      	RJMP __MINRES
                 __DIVF219:
000dce cfa4      	RJMP __MAXRES
                 __DIVF210:
000dcf 3890      	CPI  R25,0x80
000dd0 f409      	BRNE __DIVF218
                 __DIVF217:
000dd1 cf95      	RJMP __ZERORES
                 __DIVF218:
000dd2 2401      	EOR  R0,R1
000dd3 9408      	SEC
000dd4 0b97      	SBC  R25,R23
000dd5 f41b      	BRVC __DIVF216
000dd6 f3d4      	BRLT __DIVF217
000dd7 2000      	TST  R0
000dd8 cff3      	RJMP __DIVF211
                 __DIVF216:
000dd9 2f79      	MOV  R23,R25
000dda 931f      	PUSH R17
000ddb 932f      	PUSH R18
000ddc 933f      	PUSH R19
000ddd 934f      	PUSH R20
000dde 2411      	CLR  R1
000ddf 2711      	CLR  R17
000de0 2722      	CLR  R18
000de1 2733      	CLR  R19
000de2 2744      	CLR  R20
000de3 2755      	CLR  R21
000de4 e290      	LDI  R25,32
                 __DIVF212:
000de5 17ae      	CP   R26,R30
000de6 07bf      	CPC  R27,R31
000de7 0786      	CPC  R24,R22
000de8 0741      	CPC  R20,R17
000de9 f030      	BRLO __DIVF213
000dea 1bae      	SUB  R26,R30
000deb 0bbf      	SBC  R27,R31
000dec 0b86      	SBC  R24,R22
000ded 0b41      	SBC  R20,R17
000dee 9408      	SEC
000def c001      	RJMP __DIVF214
                 __DIVF213:
000df0 9488      	CLC
                 __DIVF214:
000df1 1f55      	ROL  R21
000df2 1f22      	ROL  R18
000df3 1f33      	ROL  R19
000df4 1c11      	ROL  R1
000df5 1faa      	ROL  R26
000df6 1fbb      	ROL  R27
000df7 1f88      	ROL  R24
000df8 1f44      	ROL  R20
000df9 959a      	DEC  R25
000dfa f751      	BRNE __DIVF212
000dfb 01f9      	MOVW R30,R18
000dfc 2d61      	MOV  R22,R1
000dfd 914f      	POP  R20
000dfe 913f      	POP  R19
000dff 912f      	POP  R18
000e00 911f      	POP  R17
000e01 2366      	TST  R22
000e02 f032      	BRMI __DIVF215
000e03 0f55      	LSL  R21
000e04 1fee      	ROL  R30
000e05 1fff      	ROL  R31
000e06 1f66      	ROL  R22
000e07 957a      	DEC  R23
000e08 f243      	BRVS __DIVF217
                 __DIVF215:
000e09 de7f      	RCALL __ROUND_REPACK
000e0a 915f      	POP  R21
000e0b 9508      	RET
                 
                 __CMPF12:
000e0c 2399      	TST  R25
000e0d f09a      	BRMI __CMPF120
000e0e 2377      	TST  R23
000e0f f042      	BRMI __CMPF121
000e10 1797      	CP   R25,R23
000e11 f048      	BRLO __CMPF122
000e12 f429      	BRNE __CMPF121
000e13 17ae      	CP   R26,R30
000e14 07bf      	CPC  R27,R31
000e15 0786      	CPC  R24,R22
000e16 f020      	BRLO __CMPF122
000e17 f031      	BREQ __CMPF123
                 __CMPF121:
000e18 9498      	CLZ
000e19 9488      	CLC
000e1a 9508      	RET
                 __CMPF122:
000e1b 9498      	CLZ
000e1c 9408      	SEC
000e1d 9508      	RET
                 __CMPF123:
000e1e 9418      	SEZ
000e1f 9488      	CLC
000e20 9508      	RET
                 __CMPF120:
000e21 2377      	TST  R23
000e22 f7c2      	BRPL __CMPF122
000e23 1797      	CP   R25,R23
000e24 f398      	BRLO __CMPF121
000e25 f7a9      	BRNE __CMPF122
000e26 17ea      	CP   R30,R26
000e27 07fb      	CPC  R31,R27
000e28 0768      	CPC  R22,R24
000e29 f388      	BRLO __CMPF122
000e2a f399      	BREQ __CMPF123
000e2b cfec      	RJMP __CMPF121
                 
                 __ANEGW1:
000e2c 95f1      	NEG  R31
000e2d 95e1      	NEG  R30
000e2e 40f0      	SBCI R31,0
000e2f 9508      	RET
                 
                 __ANEGD1:
000e30 95f0      	COM  R31
000e31 9560      	COM  R22
000e32 9570      	COM  R23
000e33 95e1      	NEG  R30
000e34 4fff      	SBCI R31,-1
000e35 4f6f      	SBCI R22,-1
000e36 4f7f      	SBCI R23,-1
000e37 9508      	RET
                 
                 __LSRW12:
000e38 23ee      	TST  R30
000e39 2e0e      	MOV  R0,R30
000e3a 01fd      	MOVW R30,R26
000e3b f021      	BREQ __LSRW12R
                 __LSRW12L:
000e3c 95f6      	LSR  R31
000e3d 95e7      	ROR  R30
000e3e 940a      	DEC  R0
000e3f f7e1      	BRNE __LSRW12L
                 __LSRW12R:
000e40 9508      	RET
                 
                 __CBD1:
000e41 2ffe      	MOV  R31,R30
000e42 0fff      	ADD  R31,R31
000e43 0bff      	SBC  R31,R31
000e44 2f6f      	MOV  R22,R31
000e45 2f7f      	MOV  R23,R31
000e46 9508      	RET
                 
                 __CWD1:
000e47 2f6f      	MOV  R22,R31
000e48 0f66      	ADD  R22,R22
000e49 0b66      	SBC  R22,R22
000e4a 2f76      	MOV  R23,R22
000e4b 9508      	RET
                 
                 __MULW12U:
000e4c 9ffa      	MUL  R31,R26
000e4d 2df0      	MOV  R31,R0
000e4e 9feb      	MUL  R30,R27
000e4f 0df0      	ADD  R31,R0
000e50 9fea      	MUL  R30,R26
000e51 2de0      	MOV  R30,R0
000e52 0df1      	ADD  R31,R1
000e53 9508      	RET
                 
                 __MULW12:
000e54 d02a      	RCALL __CHKSIGNW
000e55 dff6      	RCALL __MULW12U
000e56 f40e      	BRTC __MULW121
000e57 dfd4      	RCALL __ANEGW1
                 __MULW121:
000e58 9508      	RET
                 
                 __DIVW21U:
000e59 2400      	CLR  R0
000e5a 2411      	CLR  R1
000e5b e190      	LDI  R25,16
                 __DIVW21U1:
000e5c 0faa      	LSL  R26
000e5d 1fbb      	ROL  R27
000e5e 1c00      	ROL  R0
000e5f 1c11      	ROL  R1
000e60 1a0e      	SUB  R0,R30
000e61 0a1f      	SBC  R1,R31
000e62 f418      	BRCC __DIVW21U2
000e63 0e0e      	ADD  R0,R30
000e64 1e1f      	ADC  R1,R31
000e65 c001      	RJMP __DIVW21U3
                 __DIVW21U2:
000e66 60a1      	SBR  R26,1
                 __DIVW21U3:
000e67 959a      	DEC  R25
000e68 f799      	BRNE __DIVW21U1
000e69 01fd      	MOVW R30,R26
000e6a 01d0      	MOVW R26,R0
000e6b 9508      	RET
                 
                 __DIVW21:
000e6c d012      	RCALL __CHKSIGNW
000e6d dfeb      	RCALL __DIVW21U
000e6e f40e      	BRTC __DIVW211
000e6f dfbc      	RCALL __ANEGW1
                 __DIVW211:
000e70 9508      	RET
                 
                 __MODW21:
000e71 94e8      	CLT
000e72 ffb7      	SBRS R27,7
000e73 c004      	RJMP __MODW211
000e74 95a0      	COM  R26
000e75 95b0      	COM  R27
000e76 9611      	ADIW R26,1
000e77 9468      	SET
                 __MODW211:
000e78 fdf7      	SBRC R31,7
000e79 dfb2      	RCALL __ANEGW1
000e7a dfde      	RCALL __DIVW21U
000e7b 01fd      	MOVW R30,R26
000e7c f40e      	BRTC __MODW212
000e7d dfae      	RCALL __ANEGW1
                 __MODW212:
000e7e 9508      	RET
                 
                 __CHKSIGNW:
000e7f 94e8      	CLT
000e80 fff7      	SBRS R31,7
000e81 c002      	RJMP __CHKSW1
000e82 dfa9      	RCALL __ANEGW1
000e83 9468      	SET
                 __CHKSW1:
000e84 ffb7      	SBRS R27,7
000e85 c006      	RJMP __CHKSW2
000e86 95a0      	COM  R26
000e87 95b0      	COM  R27
000e88 9611      	ADIW R26,1
000e89 f800      	BLD  R0,0
000e8a 9403      	INC  R0
000e8b fa00      	BST  R0,0
                 __CHKSW2:
000e8c 9508      	RET
                 
                 __PUTDP1:
000e8d 93ed      	ST   X+,R30
000e8e 93fd      	ST   X+,R31
000e8f 936d      	ST   X+,R22
000e90 937c      	ST   X,R23
000e91 9508      	RET
                 
                 __GETD1S0:
000e92 81e8      	LD   R30,Y
000e93 81f9      	LDD  R31,Y+1
000e94 816a      	LDD  R22,Y+2
000e95 817b      	LDD  R23,Y+3
000e96 9508      	RET
                 
                 __GETD2S0:
000e97 81a8      	LD   R26,Y
000e98 81b9      	LDD  R27,Y+1
000e99 818a      	LDD  R24,Y+2
000e9a 819b      	LDD  R25,Y+3
000e9b 9508      	RET
                 
                 __PUTD1S0:
000e9c 83e8      	ST   Y,R30
000e9d 83f9      	STD  Y+1,R31
000e9e 836a      	STD  Y+2,R22
000e9f 837b      	STD  Y+3,R23
000ea0 9508      	RET
                 
                 __PUTPARD1:
000ea1 937a      	ST   -Y,R23
000ea2 936a      	ST   -Y,R22
000ea3 93fa      	ST   -Y,R31
000ea4 93ea      	ST   -Y,R30
000ea5 9508      	RET
                 
                 __PUTPARD2:
000ea6 939a      	ST   -Y,R25
000ea7 938a      	ST   -Y,R24
000ea8 93ba      	ST   -Y,R27
000ea9 93aa      	ST   -Y,R26
000eaa 9508      	RET
                 
                 __SWAPD12:
000eab 2e18      	MOV  R1,R24
000eac 2f86      	MOV  R24,R22
000ead 2d61      	MOV  R22,R1
000eae 2e19      	MOV  R1,R25
000eaf 2f97      	MOV  R25,R23
000eb0 2d71      	MOV  R23,R1
                 
                 __SWAPW12:
000eb1 2e1b      	MOV  R1,R27
000eb2 2fbf      	MOV  R27,R31
000eb3 2df1      	MOV  R31,R1
                 
                 __SWAPB12:
000eb4 2e1a      	MOV  R1,R26
000eb5 2fae      	MOV  R26,R30
000eb6 2de1      	MOV  R30,R1
000eb7 9508      	RET
                 
                 __CPD02:
000eb8 2400      	CLR  R0
000eb9 160a      	CP   R0,R26
000eba 060b      	CPC  R0,R27
000ebb 0608      	CPC  R0,R24
000ebc 0609      	CPC  R0,R25
000ebd 9508      	RET
                 
                 ;END OF CODE MARKER
                 __END_OF_CODE:


RESOURCE USE INFORMATION
------------------------

Notice:
The register and instruction counts are symbol table hit counts,
and hence implicitly used resources are not counted, eg, the
'lpm' instruction without operands implicitly uses r0 and z,
none of which are counted.

x,y,z are separate entities in the symbol table and are
counted separately from r26..r31 here.

.dseg memory usage only counts static data declared with .byte

ATmega16 register use summary:
r0 :  50 r1 :  35 r2 :  42 r3 :   0 r4 :  39 r5 :  23 r6 :   4 r7 :   3 
r8 :   8 r9 :   7 r10:  20 r11:   8 r12:   3 r13:  13 r14:   0 r15:   0 
r16:  14 r17:  30 r18:  12 r19:  12 r20:  22 r21:  63 r22: 107 r23:  90 
r24:  92 r25:  64 r26: 406 r27: 127 r28:   9 r29:   1 r30: 737 r31: 196 
x  :  27 y  : 222 z  :  29 
Registers used: 32 out of 35 (91.4%)

ATmega16 instruction use summary:
.lds  :   0 .lds.l:   0 .sts  :   0 .sts.l:   0 adc   :  21 add   :  22 
adiw  :  16 and   :   5 andi  :   9 asr   :   0 bclr  :   0 bld   :  24 
brbc  :   0 brbs  :   0 brcc  :   7 brcs  :   1 break :   0 breq  :  63 
brge  :   1 brhc  :   0 brhs  :   0 brid  :   0 brie  :   0 brlo  :  23 
brlt  :   2 brmi  :  10 brne  : 115 brpl  :   9 brsh  :  24 brtc  :   6 
brts  :   2 brvc  :   4 brvs  :   4 bset  :   0 bst   :   3 call  : 286 
cbi   :  31 cbr   :   1 clc   :   5 clh   :   0 cli   :   1 cln   :   0 
clr   :  67 cls   :   0 clt   :   8 clv   :   0 clz   :   2 com   :  15 
cp    :  39 cpc   :  39 cpi   : 117 cpse  :   0 dec   :  29 des   :   0 
eor   :   7 fmul  :   0 fmuls :   0 fmulsu:   0 icall :   0 ijmp  :   0 
in    :  10 inc   :  20 jmp   :  36 ld    :  69 ldd   :  71 ldi   : 453 
lds   : 127 lpm   :   8 lsl   :  17 lsr   :   5 mov   : 112 movw  :  29 
mul   :  12 muls  :   1 mulsu :   0 neg   :   4 nop   :   1 or    :   0 
ori   :   4 out   :  54 pop   :  18 push  :  18 rcall :  80 ret   :  95 
reti  :   3 rjmp  : 177 rol   :  28 ror   :  18 sbc   :  10 sbci  :  34 
sbi   :  39 sbic  :   5 sbis  :   7 sbiw  :  19 sbr   :   3 sbrc  :  24 
sbrs  :   6 sec   :   7 seh   :   0 sei   :   1 sen   :   0 ser   :   8 
ses   :   0 set   :  26 sev   :   0 sez   :   1 sleep :   0 spm   :   0 
st    : 106 std   :  24 sts   :  99 sub   :   6 subi  :  73 swap  :   2 
tst   :  28 wdr   :   1 
Instructions used: 83 out of 116 (71.6%)

ATmega16 memory use summary [bytes]:
Segment   Begin    End      Code   Data   Used    Size   Use%
---------------------------------------------------------------
[.cseg] 0x000000 0x001d7c   7130    418   7548   16384  46.1%
[.dseg] 0x000060 0x000312      0    434    434    1024  42.4%
[.eseg] 0x000000 0x000000      0      0      0     512   0.0%

Assembly complete, 0 errors, 14 warnings
